 0x000000000000000e (SONAME)             Library soname: [libActorGraph.so]
__bss_start B
_edata D
_end B
_fini T
__gcov_error_file B 0000000000000008
__gcov_master D 0000000000000010
__gcov_sort_n_vals T 00000000000000b7
__gcov_var B 0000000000001028
_init T
_ZdlPvS_ W 0000000000000021
_ZGTtNKSt11logic_error4whatEv T 0000000000000015
_ZGTtNKSt13runtime_error4whatEv T 0000000000000015
_ZGTtNSt11logic_errorC1EPKc T 000000000000008f
_ZGTtNSt11logic_errorC1ERKNSt7__cxx1112basic_stringIcSt11char_traitsIcESaIcEEE T 000000000000009a
_ZGTtNSt11logic_errorC2EPKc T 000000000000008f
_ZGTtNSt11logic_errorC2ERKNSt7__cxx1112basic_stringIcSt11char_traitsIcESaIcEEE T 000000000000009a
_ZGTtNSt11logic_errorD0Ev T 0000000000000012
_ZGTtNSt11logic_errorD1Ev T 0000000000000015
_ZGTtNSt11logic_errorD2Ev T 0000000000000015
_ZGTtNSt11range_errorC1EPKc T 000000000000008f
_ZGTtNSt11range_errorC1ERKNSt7__cxx1112basic_stringIcSt11char_traitsIcESaIcEEE T 000000000000009a
_ZGTtNSt11range_errorC2EPKc T 000000000000008f
_ZGTtNSt11range_errorC2ERKNSt7__cxx1112basic_stringIcSt11char_traitsIcESaIcEEE T 000000000000009a
_ZGTtNSt11range_errorD0Ev T 0000000000000012
_ZGTtNSt11range_errorD1Ev T 0000000000000015
_ZGTtNSt11range_errorD2Ev T 0000000000000015
_ZGTtNSt12domain_errorC1EPKc T 000000000000008f
_ZGTtNSt12domain_errorC1ERKNSt7__cxx1112basic_stringIcSt11char_traitsIcESaIcEEE T 000000000000009a
_ZGTtNSt12domain_errorC2EPKc T 000000000000008f
_ZGTtNSt12domain_errorC2ERKNSt7__cxx1112basic_stringIcSt11char_traitsIcESaIcEEE T 000000000000009a
_ZGTtNSt12domain_errorD0Ev T 0000000000000012
_ZGTtNSt12domain_errorD1Ev T 0000000000000015
_ZGTtNSt12domain_errorD2Ev T 0000000000000015
_ZGTtNSt12length_errorC1EPKc T 000000000000008f
_ZGTtNSt12length_errorC1ERKNSt7__cxx1112basic_stringIcSt11char_traitsIcESaIcEEE T 000000000000009a
_ZGTtNSt12length_errorC2EPKc T 000000000000008f
_ZGTtNSt12length_errorC2ERKNSt7__cxx1112basic_stringIcSt11char_traitsIcESaIcEEE T 000000000000009a
_ZGTtNSt12length_errorD0Ev T 0000000000000012
_ZGTtNSt12length_errorD1Ev T 0000000000000015
_ZGTtNSt12length_errorD2Ev T 0000000000000015
_ZGTtNSt12out_of_rangeC1EPKc T 000000000000008f
_ZGTtNSt12out_of_rangeC1ERKNSt7__cxx1112basic_stringIcSt11char_traitsIcESaIcEEE T 000000000000009a
_ZGTtNSt12out_of_rangeC2EPKc T 000000000000008f
_ZGTtNSt12out_of_rangeC2ERKNSt7__cxx1112basic_stringIcSt11char_traitsIcESaIcEEE T 000000000000009a
_ZGTtNSt12out_of_rangeD0Ev T 0000000000000012
_ZGTtNSt12out_of_rangeD1Ev T 0000000000000015
_ZGTtNSt12out_of_rangeD2Ev T 0000000000000015
_ZGTtNSt13runtime_errorC1EPKc T 000000000000008f
_ZGTtNSt13runtime_errorC1ERKNSt7__cxx1112basic_stringIcSt11char_traitsIcESaIcEEE T 000000000000009a
_ZGTtNSt13runtime_errorC2EPKc T 000000000000008f
_ZGTtNSt13runtime_errorC2ERKNSt7__cxx1112basic_stringIcSt11char_traitsIcESaIcEEE T 000000000000009a
_ZGTtNSt13runtime_errorD0Ev T 0000000000000012
_ZGTtNSt13runtime_errorD1Ev T 0000000000000015
_ZGTtNSt13runtime_errorD2Ev T 0000000000000015
_ZGTtNSt14overflow_errorC1EPKc T 000000000000008f
_ZGTtNSt14overflow_errorC1ERKNSt7__cxx1112basic_stringIcSt11char_traitsIcESaIcEEE T 000000000000009a
_ZGTtNSt14overflow_errorC2EPKc T 000000000000008f
_ZGTtNSt14overflow_errorC2ERKNSt7__cxx1112basic_stringIcSt11char_traitsIcESaIcEEE T 000000000000009a
_ZGTtNSt14overflow_errorD0Ev T 0000000000000012
_ZGTtNSt14overflow_errorD1Ev T 0000000000000015
_ZGTtNSt14overflow_errorD2Ev T 0000000000000015
_ZGTtNSt15underflow_errorC1EPKc T 000000000000008f
_ZGTtNSt15underflow_errorC1ERKNSt7__cxx1112basic_stringIcSt11char_traitsIcESaIcEEE T 000000000000009a
_ZGTtNSt15underflow_errorC2EPKc T 000000000000008f
_ZGTtNSt15underflow_errorC2ERKNSt7__cxx1112basic_stringIcSt11char_traitsIcESaIcEEE T 000000000000009a
_ZGTtNSt15underflow_errorD0Ev T 0000000000000012
_ZGTtNSt15underflow_errorD1Ev T 0000000000000015
_ZGTtNSt15underflow_errorD2Ev T 0000000000000015
_ZGTtNSt16invalid_argumentC1EPKc T 000000000000008f
_ZGTtNSt16invalid_argumentC1ERKNSt7__cxx1112basic_stringIcSt11char_traitsIcESaIcEEE T 000000000000009a
_ZGTtNSt16invalid_argumentC2EPKc T 000000000000008f
_ZGTtNSt16invalid_argumentC2ERKNSt7__cxx1112basic_stringIcSt11char_traitsIcESaIcEEE T 000000000000009a
_ZGTtNSt16invalid_argumentD0Ev T 0000000000000012
_ZGTtNSt16invalid_argumentD1Ev T 0000000000000015
_ZGTtNSt16invalid_argumentD2Ev T 0000000000000015
_ZN10ActorGraph12loadFromFileEPKcbR5Actor T 000000000000134a
_ZN10ActorGraph13readActorFileESs T 000000000000088c
_ZN10ActorGraph8readFileESs T 00000000000009b6
_ZN10ActorGraph9writeFileERSt6vectorIS0_ISsSaISsEESaIS2_EES5_SsSs T 00000000000008e3
_ZN10ActorGraph9writeFileERSt6vectorISt4pairISsSt5stackIS1_ISsSsESt5dequeIS3_SaIS3_EEEESaIS8_EESs T 00000000000008a0
_ZN10ActorGraphC1Ev T 0000000000000061
_ZN10ActorGraphC2Ev T 0000000000000061
_ZN4EdgeC1EP9ActorNodeS1_P9MovieNodei W 000000000000005a
_ZN4EdgeC2EP9ActorNodeS1_P9MovieNodei W 000000000000005a
_ZN9ActorNodeC1ESs W 000000000000010b
_ZN9ActorNodeC2ESs W 000000000000010b
_ZN9__gnu_cxx13new_allocatorI4EdgeE10deallocateEPS1_m W 0000000000000047
_ZN9__gnu_cxx13new_allocatorI4EdgeE7destroyIS1_EEvPT_ W 0000000000000021
_ZN9__gnu_cxx13new_allocatorI4EdgeE8allocateEmPKv W 0000000000000090
_ZN9__gnu_cxx13new_allocatorI4EdgeE9constructIS1_JRKS1_EEEvPT_DpOT0_ W 00000000000000ad
_ZN9__gnu_cxx13new_allocatorI4EdgeEC1Ev W 000000000000001d
_ZN9__gnu_cxx13new_allocatorI4EdgeEC2Ev W 000000000000001d
_ZN9__gnu_cxx13new_allocatorI4EdgeED1Ev W 000000000000001d
_ZN9__gnu_cxx13new_allocatorI4EdgeED2Ev W 000000000000001d
_ZN9__gnu_cxx13new_allocatorINSt8__detail10_Hash_nodeISt4pairIKSsP9ActorNodeELb1EEEE10deallocateEPS8_m W 0000000000000047
_ZN9__gnu_cxx13new_allocatorINSt8__detail10_Hash_nodeISt4pairIKSsP9ActorNodeELb1EEEE8allocateEmPKv W 0000000000000090
_ZN9__gnu_cxx13new_allocatorINSt8__detail10_Hash_nodeISt4pairIKSsP9MovieNodeELb1EEEE10deallocateEPS8_m W 0000000000000047
_ZN9__gnu_cxx13new_allocatorINSt8__detail10_Hash_nodeISt4pairIKSsP9MovieNodeELb1EEEE8allocateEmPKv W 0000000000000090
_ZN9__gnu_cxx13new_allocatorIP9ActorNodeE10deallocateEPS2_m W 0000000000000047
_ZN9__gnu_cxx13new_allocatorIP9ActorNodeE7destroyIS2_EEvPT_ W 0000000000000021
_ZN9__gnu_cxx13new_allocatorIP9ActorNodeE8allocateEmPKv W 0000000000000090
_ZN9__gnu_cxx13new_allocatorIP9ActorNodeE9constructIS2_JRKS2_EEEvPT_DpOT0_ W 0000000000000092
_ZN9__gnu_cxx13new_allocatorIP9ActorNodeEC1Ev W 000000000000001d
_ZN9__gnu_cxx13new_allocatorIP9ActorNodeEC2Ev W 000000000000001d
_ZN9__gnu_cxx13new_allocatorIPNSt8__detail15_Hash_node_baseEE10deallocateEPS3_m W 0000000000000047
_ZN9__gnu_cxx13new_allocatorIPNSt8__detail15_Hash_node_baseEE8allocateEmPKv W 0000000000000090
_ZN9__gnu_cxx13new_allocatorIPNSt8__detail15_Hash_node_baseEEC1Ev W 000000000000001d
_ZN9__gnu_cxx13new_allocatorIPNSt8__detail15_Hash_node_baseEEC2Ev W 000000000000001d
_ZN9__gnu_cxx13new_allocatorIPNSt8__detail15_Hash_node_baseEED1Ev W 000000000000001d
_ZN9__gnu_cxx13new_allocatorIPNSt8__detail15_Hash_node_baseEED2Ev W 000000000000001d
_ZN9__gnu_cxx13new_allocatorIPSt4pairISsSsEE10deallocateEPS3_m W 0000000000000047
_ZN9__gnu_cxx13new_allocatorIPSt4pairISsSsEE8allocateEmPKv W 0000000000000090
_ZN9__gnu_cxx13new_allocatorIPSt4pairISsSsEEC1Ev W 000000000000001d
_ZN9__gnu_cxx13new_allocatorIPSt4pairISsSsEEC2Ev W 000000000000001d
_ZN9__gnu_cxx13new_allocatorIPSt4pairISsSsEED1Ev W 000000000000001d
_ZN9__gnu_cxx13new_allocatorIPSt4pairISsSsEED2Ev W 000000000000001d
_ZN9__gnu_cxx13new_allocatorISsE10deallocateEPSsm W 0000000000000047
_ZN9__gnu_cxx13new_allocatorISsE7destroyISsEEvPT_ W 0000000000000043
_ZN9__gnu_cxx13new_allocatorISsE8allocateEmPKv W 0000000000000090
_ZN9__gnu_cxx13new_allocatorISsE9constructISsJRKSsEEEvPT_DpOT0_ W 00000000000000f2
_ZN9__gnu_cxx13new_allocatorISsEC1ERKS1_ W 0000000000000021
_ZN9__gnu_cxx13new_allocatorISsEC1Ev W 000000000000001d
_ZN9__gnu_cxx13new_allocatorISsEC2ERKS1_ W 0000000000000021
_ZN9__gnu_cxx13new_allocatorISsEC2Ev W 000000000000001d
_ZN9__gnu_cxx13new_allocatorISsED1Ev W 000000000000001d
_ZN9__gnu_cxx13new_allocatorISsED2Ev W 000000000000001d
_ZN9__gnu_cxx13new_allocatorISt4pairIKSsP9ActorNodeEE7destroyIS5_EEvPT_ W 0000000000000043
_ZN9__gnu_cxx13new_allocatorISt4pairIKSsP9ActorNodeEE9constructIS5_JS1_ISsS4_EEEEvPT_DpOT0_ W 00000000000000a9
_ZN9__gnu_cxx13new_allocatorISt4pairIKSsP9ActorNodeEEC1Ev W 000000000000001d
_ZN9__gnu_cxx13new_allocatorISt4pairIKSsP9ActorNodeEEC2Ev W 000000000000001d
_ZN9__gnu_cxx13new_allocatorISt4pairIKSsP9ActorNodeEED1Ev W 000000000000001d
_ZN9__gnu_cxx13new_allocatorISt4pairIKSsP9ActorNodeEED2Ev W 000000000000001d
_ZN9__gnu_cxx13new_allocatorISt4pairIKSsP9MovieNodeEE7destroyIS5_EEvPT_ W 0000000000000043
_ZN9__gnu_cxx13new_allocatorISt4pairIKSsP9MovieNodeEE9constructIS5_JS1_ISsS4_EEEEvPT_DpOT0_ W 00000000000000a9
_ZN9__gnu_cxx13new_allocatorISt4pairIKSsP9MovieNodeEEC1Ev W 000000000000001d
_ZN9__gnu_cxx13new_allocatorISt4pairIKSsP9MovieNodeEEC2Ev W 000000000000001d
_ZN9__gnu_cxx13new_allocatorISt4pairIKSsP9MovieNodeEED1Ev W 000000000000001d
_ZN9__gnu_cxx13new_allocatorISt4pairIKSsP9MovieNodeEED2Ev W 000000000000001d
_ZN9__gnu_cxx13new_allocatorISt4pairISsSsEE10deallocateEPS2_m W 0000000000000047
_ZN9__gnu_cxx13new_allocatorISt4pairISsSsEE7destroyIS2_EEvPT_ W 0000000000000043
_ZN9__gnu_cxx13new_allocatorISt4pairISsSsEE8allocateEmPKv W 0000000000000090
_ZN9__gnu_cxx13new_allocatorISt4pairISsSsEE9constructIS2_JS2_EEEvPT_DpOT0_ W 00000000000000a9
_ZN9__gnu_cxx13new_allocatorISt4pairISsSsEEC1ERKS3_ W 0000000000000021
_ZN9__gnu_cxx13new_allocatorISt4pairISsSsEEC1Ev W 000000000000001d
_ZN9__gnu_cxx13new_allocatorISt4pairISsSsEEC2ERKS3_ W 0000000000000021
_ZN9__gnu_cxx13new_allocatorISt4pairISsSsEEC2Ev W 000000000000001d
_ZN9__gnu_cxx13new_allocatorISt4pairISsSsEED1Ev W 000000000000001d
_ZN9__gnu_cxx13new_allocatorISt4pairISsSsEED2Ev W 000000000000001d
_ZN9__gnu_cxx14__alloc_traitsISaISsEE17_S_select_on_copyERKS1_ W 000000000000004d
_ZN9__gnu_cxx14__alloc_traitsISaISt4pairISsSsEEE17_S_select_on_copyERKS3_ W 000000000000004d
_ZN9__gnu_cxx16__aligned_bufferISt4pairIKSsP9ActorNodeEE6_M_ptrEv W 0000000000000044
_ZN9__gnu_cxx16__aligned_bufferISt4pairIKSsP9ActorNodeEE7_M_addrEv W 0000000000000020
_ZN9__gnu_cxx16__aligned_bufferISt4pairIKSsP9MovieNodeEE6_M_ptrEv W 0000000000000044
_ZN9__gnu_cxx16__aligned_bufferISt4pairIKSsP9MovieNodeEE7_M_addrEv W 0000000000000020
_ZN9__gnu_cxx17__normal_iteratorIP4EdgeSt6vectorIS1_SaIS1_EEEC1ERKS2_ W 000000000000002f
_ZN9__gnu_cxx17__normal_iteratorIP4EdgeSt6vectorIS1_SaIS1_EEEC2ERKS2_ W 000000000000002f
_ZN9__gnu_cxx17__normal_iteratorIPKSsSt6vectorISsSaISsEEEC1ERKS2_ W 000000000000002f
_ZN9__gnu_cxx17__normal_iteratorIPKSsSt6vectorISsSaISsEEEC2ERKS2_ W 000000000000002f
_ZN9__gnu_cxx17__normal_iteratorIPKSsSt6vectorISsSaISsEEEppEv W 0000000000000032
_ZN9__gnu_cxx17__normal_iteratorIPP9ActorNodeSt6vectorIS2_SaIS2_EEEC1ERKS3_ W 000000000000002f
_ZN9__gnu_cxx17__normal_iteratorIPP9ActorNodeSt6vectorIS2_SaIS2_EEEC2ERKS3_ W 000000000000002f
_ZN9__gnu_cxx17__normal_iteratorIPP9ActorNodeSt6vectorIS2_SaIS2_EEEppEv W 0000000000000032
_ZN9__gnu_cxx17__normal_iteratorIPSsSt6vectorISsSaISsEEEC1ERKS1_ W 000000000000002f
_ZN9__gnu_cxx17__normal_iteratorIPSsSt6vectorISsSaISsEEEC2ERKS1_ W 000000000000002f
_ZN9__gnu_cxx17__normal_iteratorIPSt4pairISsSsESt6vectorIS2_SaIS2_EEEC1ERKS3_ W 000000000000002f
_ZN9__gnu_cxx17__normal_iteratorIPSt4pairISsSsESt6vectorIS2_SaIS2_EEEC2ERKS3_ W 000000000000002f
_ZN9__gnu_cxx17__normal_iteratorIPSt4pairISsSt5stackIS1_ISsSsESt5dequeIS3_SaIS3_EEEESt6vectorIS8_SaIS8_EEEC1ERKS9_ W 000000000000002f
_ZN9__gnu_cxx17__normal_iteratorIPSt4pairISsSt5stackIS1_ISsSsESt5dequeIS3_SaIS3_EEEESt6vectorIS8_SaIS8_EEEC2ERKS9_ W 000000000000002f
_ZN9__gnu_cxx17__normal_iteratorIPSt4pairISsSt5stackIS1_ISsSsESt5dequeIS3_SaIS3_EEEESt6vectorIS8_SaIS8_EEEppEv W 0000000000000032
_ZN9__gnu_cxx17__normal_iteratorIPSt6vectorISsSaISsEES1_IS3_SaIS3_EEEC1ERKS4_ W 000000000000002f
_ZN9__gnu_cxx17__normal_iteratorIPSt6vectorISsSaISsEES1_IS3_SaIS3_EEEC2ERKS4_ W 000000000000002f
_ZN9__gnu_cxx17__normal_iteratorIPSt6vectorISsSaISsEES1_IS3_SaIS3_EEEppEv W 0000000000000032
_ZN9__gnu_cxx6__stoaIlicJiEEET0_PFT_PKT1_PPS3_DpT2_EPKcS5_PmS9_ W 0000000000000205
_ZN9__gnu_cxxmiIP4EdgeSt6vectorIS1_SaIS1_EEEENS_17__normal_iteratorIT_T0_E15difference_typeERKS9_SC_ W 0000000000000082
_ZN9__gnu_cxxmiIPP9ActorNodeSt6vectorIS2_SaIS2_EEEENS_17__normal_iteratorIT_T0_E15difference_typeERKSA_SD_ W 0000000000000082
_ZN9__gnu_cxxmiIPSsSt6vectorISsSaISsEEEENS_17__normal_iteratorIT_T0_E15difference_typeERKS8_SB_ W 0000000000000082
_ZN9__gnu_cxxmiIPSt4pairISsSsESt6vectorIS2_SaIS2_EEEENS_17__normal_iteratorIT_T0_E15difference_typeERKSA_SD_ W 0000000000000082
_ZN9__gnu_cxxneIPKSsSt6vectorISsSaISsEEEEbRKNS_17__normal_iteratorIT_T0_EESB_ W 0000000000000077
_ZN9__gnu_cxxneIPP9ActorNodeSt6vectorIS2_SaIS2_EEEEbRKNS_17__normal_iteratorIT_T0_EESC_ W 0000000000000077
_ZN9__gnu_cxxneIPSt4pairISsSt5stackIS1_ISsSsESt5dequeIS3_SaIS3_EEEESt6vectorIS8_SaIS8_EEEEbRKNS_17__normal_iteratorIT_T0_EESI_ W 0000000000000077
_ZN9__gnu_cxxneIPSt6vectorISsSaISsEES1_IS3_SaIS3_EEEEbRKNS_17__normal_iteratorIT_T0_EESC_ W 0000000000000077
_ZN9MovieNodeC1ESsi W 000000000000009b
_ZN9MovieNodeC2ESsi W 000000000000009b
_ZNK9__gnu_cxx13new_allocatorI4EdgeE8max_sizeEv W 0000000000000026
_ZNK9__gnu_cxx13new_allocatorINSt8__detail10_Hash_nodeISt4pairIKSsP9ActorNodeELb1EEEE8max_sizeEv W 0000000000000026
_ZNK9__gnu_cxx13new_allocatorINSt8__detail10_Hash_nodeISt4pairIKSsP9MovieNodeELb1EEEE8max_sizeEv W 0000000000000026
_ZNK9__gnu_cxx13new_allocatorIP9ActorNodeE8max_sizeEv W 0000000000000026
_ZNK9__gnu_cxx13new_allocatorIPNSt8__detail15_Hash_node_baseEE8max_sizeEv W 0000000000000026
_ZNK9__gnu_cxx13new_allocatorIPSt4pairISsSsEE8max_sizeEv W 0000000000000026
_ZNK9__gnu_cxx13new_allocatorISsE8max_sizeEv W 0000000000000026
_ZNK9__gnu_cxx13new_allocatorISt4pairISsSsEE8max_sizeEv W 0000000000000026
_ZNK9__gnu_cxx17__normal_iteratorIP4EdgeSt6vectorIS1_SaIS1_EEE4baseEv W 0000000000000020
_ZNK9__gnu_cxx17__normal_iteratorIPKSsSt6vectorISsSaISsEEE4baseEv W 0000000000000020
_ZNK9__gnu_cxx17__normal_iteratorIPKSsSt6vectorISsSaISsEEEdeEv W 0000000000000023
_ZNK9__gnu_cxx17__normal_iteratorIPP9ActorNodeSt6vectorIS2_SaIS2_EEE4baseEv W 0000000000000020
_ZNK9__gnu_cxx17__normal_iteratorIPP9ActorNodeSt6vectorIS2_SaIS2_EEEdeEv W 0000000000000023
_ZNK9__gnu_cxx17__normal_iteratorIPSsSt6vectorISsSaISsEEE4baseEv W 0000000000000020
_ZNK9__gnu_cxx17__normal_iteratorIPSt4pairISsSsESt6vectorIS2_SaIS2_EEE4baseEv W 0000000000000020
_ZNK9__gnu_cxx17__normal_iteratorIPSt4pairISsSt5stackIS1_ISsSsESt5dequeIS3_SaIS3_EEEESt6vectorIS8_SaIS8_EEE4baseEv W 0000000000000020
_ZNK9__gnu_cxx17__normal_iteratorIPSt4pairISsSt5stackIS1_ISsSsESt5dequeIS3_SaIS3_EEEESt6vectorIS8_SaIS8_EEEdeEv W 0000000000000023
_ZNK9__gnu_cxx17__normal_iteratorIPSt6vectorISsSaISsEES1_IS3_SaIS3_EEE4baseEv W 0000000000000020
_ZNK9__gnu_cxx17__normal_iteratorIPSt6vectorISsSaISsEES1_IS3_SaIS3_EEEdeEv W 0000000000000023
_ZNKSt10_HashtableISsSt4pairIKSsP9ActorNodeESaIS4_ENSt8__detail10_Select1stESt8equal_toISsESt4hashISsENS6_18_Mod_range_hashingENS6_20_Default_ranged_hashENS6_20_Prime_rehash_policyENS6_17_Hashtable_traitsILb1ELb0ELb1EEEE12_M_find_nodeEmRS1_m W 0000000000000081
_ZNKSt10_HashtableISsSt4pairIKSsP9ActorNodeESaIS4_ENSt8__detail10_Select1stESt8equal_toISsESt4hashISsENS6_18_Mod_range_hashingENS6_20_Default_ranged_hashENS6_20_Prime_rehash_policyENS6_17_Hashtable_traitsILb1ELb0ELb1EEEE15_M_bucket_indexEPNS6_10_Hash_nodeIS4_Lb1EEE W 0000000000000057
_ZNKSt10_HashtableISsSt4pairIKSsP9ActorNodeESaIS4_ENSt8__detail10_Select1stESt8equal_toISsESt4hashISsENS6_18_Mod_range_hashingENS6_20_Default_ranged_hashENS6_20_Prime_rehash_policyENS6_17_Hashtable_traitsILb1ELb0ELb1EEEE15_M_bucket_indexERS1_m W 000000000000005c
_ZNKSt10_HashtableISsSt4pairIKSsP9ActorNodeESaIS4_ENSt8__detail10_Select1stESt8equal_toISsESt4hashISsENS6_18_Mod_range_hashingENS6_20_Default_ranged_hashENS6_20_Prime_rehash_policyENS6_17_Hashtable_traitsILb1ELb0ELb1EEEE19_M_find_before_nodeEmRS1_m W 000000000000018f
_ZNKSt10_HashtableISsSt4pairIKSsP9ActorNodeESaIS4_ENSt8__detail10_Select1stESt8equal_toISsESt4hashISsENS6_18_Mod_range_hashingENS6_20_Default_ranged_hashENS6_20_Prime_rehash_policyENS6_17_Hashtable_traitsILb1ELb0ELb1EEEE21_M_uses_single_bucketEPPNS6_15_Hash_node_baseE W 000000000000003a
_ZNKSt10_HashtableISsSt4pairIKSsP9ActorNodeESaIS4_ENSt8__detail10_Select1stESt8equal_toISsESt4hashISsENS6_18_Mod_range_hashingENS6_20_Default_ranged_hashENS6_20_Prime_rehash_policyENS6_17_Hashtable_traitsILb1ELb0ELb1EEEE8_M_beginEv W 0000000000000024
_ZNKSt10_HashtableISsSt4pairIKSsP9MovieNodeESaIS4_ENSt8__detail10_Select1stESt8equal_toISsESt4hashISsENS6_18_Mod_range_hashingENS6_20_Default_ranged_hashENS6_20_Prime_rehash_policyENS6_17_Hashtable_traitsILb1ELb0ELb1EEEE12_M_find_nodeEmRS1_m W 0000000000000081
_ZNKSt10_HashtableISsSt4pairIKSsP9MovieNodeESaIS4_ENSt8__detail10_Select1stESt8equal_toISsESt4hashISsENS6_18_Mod_range_hashingENS6_20_Default_ranged_hashENS6_20_Prime_rehash_policyENS6_17_Hashtable_traitsILb1ELb0ELb1EEEE15_M_bucket_indexEPNS6_10_Hash_nodeIS4_Lb1EEE W 0000000000000057
_ZNKSt10_HashtableISsSt4pairIKSsP9MovieNodeESaIS4_ENSt8__detail10_Select1stESt8equal_toISsESt4hashISsENS6_18_Mod_range_hashingENS6_20_Default_ranged_hashENS6_20_Prime_rehash_policyENS6_17_Hashtable_traitsILb1ELb0ELb1EEEE15_M_bucket_indexERS1_m W 000000000000005c
_ZNKSt10_HashtableISsSt4pairIKSsP9MovieNodeESaIS4_ENSt8__detail10_Select1stESt8equal_toISsESt4hashISsENS6_18_Mod_range_hashingENS6_20_Default_ranged_hashENS6_20_Prime_rehash_policyENS6_17_Hashtable_traitsILb1ELb0ELb1EEEE19_M_find_before_nodeEmRS1_m W 000000000000018f
_ZNKSt10_HashtableISsSt4pairIKSsP9MovieNodeESaIS4_ENSt8__detail10_Select1stESt8equal_toISsESt4hashISsENS6_18_Mod_range_hashingENS6_20_Default_ranged_hashENS6_20_Prime_rehash_policyENS6_17_Hashtable_traitsILb1ELb0ELb1EEEE21_M_uses_single_bucketEPPNS6_15_Hash_node_baseE W 000000000000003a
_ZNKSt10_HashtableISsSt4pairIKSsP9MovieNodeESaIS4_ENSt8__detail10_Select1stESt8equal_toISsESt4hashISsENS6_18_Mod_range_hashingENS6_20_Default_ranged_hashENS6_20_Prime_rehash_policyENS6_17_Hashtable_traitsILb1ELb0ELb1EEEE8_M_beginEv W 0000000000000024
_ZNKSt11_Deque_baseISt4pairISsSsESaIS1_EE19_M_get_Tp_allocatorEv W 0000000000000020
_ZNKSt11_Deque_baseISt4pairISsSsESaIS1_EE20_M_get_map_allocatorEv W 000000000000006a
_ZNKSt12_Vector_baseI4EdgeSaIS0_EE19_M_get_Tp_allocatorEv W 0000000000000020
_ZNKSt12_Vector_baseIP9ActorNodeSaIS1_EE19_M_get_Tp_allocatorEv W 0000000000000020
_ZNKSt12_Vector_baseISsSaISsEE19_M_get_Tp_allocatorEv W 0000000000000020
_ZNKSt12_Vector_baseISt4pairISsSsESaIS1_EE19_M_get_Tp_allocatorEv W 0000000000000020
_ZNKSt13move_iteratorIP4EdgeE4baseEv W 0000000000000023
_ZNKSt13move_iteratorIP4EdgeEdeEv W 0000000000000023
_ZNKSt13move_iteratorIPP9ActorNodeE4baseEv W 0000000000000023
_ZNKSt13move_iteratorIPSsE4baseEv W 0000000000000023
_ZNKSt13move_iteratorIPSsEdeEv W 0000000000000023
_ZNKSt13move_iteratorIPSt4pairISsSsEE4baseEv W 0000000000000023
_ZNKSt13move_iteratorIPSt4pairISsSsEEdeEv W 0000000000000023
_ZNKSt15_Deque_iteratorISt4pairISsSsERKS1_PS2_EdeEv W 0000000000000023
_ZNKSt15_Deque_iteratorISt4pairISsSsERS1_PS1_EdeEv W 0000000000000023
_ZNKSt3_V214error_category10equivalentEiRKSt15error_condition T 0000000000000039
_ZNKSt3_V214error_category10equivalentERKSt10error_codei T 0000000000000016
_ZNKSt3_V214error_category10_M_messageB5cxx11Ei T 0000000000000084
_ZNKSt3_V214error_category10_M_messageEi T 00000000000000e5
_ZNKSt3_V214error_category23default_error_conditionEi T 0000000000000006
_ZNKSt4hashISsEclERKSs W 0000000000000094
_ZNKSt5dequeISt4pairISsSsESaIS1_EE3endEv W 0000000000000051
_ZNKSt5dequeISt4pairISsSsESaIS1_EE4sizeEv W 0000000000000053
_ZNKSt5dequeISt4pairISsSsESaIS1_EE5beginEv W 0000000000000051
_ZNKSt5dequeISt4pairISsSsESaIS1_EE5emptyEv W 0000000000000051
_ZNKSt5stackISt4pairISsSsESt5dequeIS1_SaIS1_EEE5emptyEv W 0000000000000042
_ZNKSt6vectorI4EdgeSaIS0_EE12_M_check_lenEmPKc W 00000000000001ae
_ZNKSt6vectorI4EdgeSaIS0_EE4sizeEv W 000000000000003e
_ZNKSt6vectorI4EdgeSaIS0_EE8max_sizeEv W 0000000000000061
_ZNKSt6vectorIP9ActorNodeSaIS1_EE12_M_check_lenEmPKc W 00000000000001ae
_ZNKSt6vectorIP9ActorNodeSaIS1_EE4sizeEv W 000000000000003e
_ZNKSt6vectorIP9ActorNodeSaIS1_EE8max_sizeEv W 0000000000000061
_ZNKSt6vectorISsSaISsEE12_M_check_lenEmPKc W 00000000000001ae
_ZNKSt6vectorISsSaISsEE3endEv W 0000000000000055
_ZNKSt6vectorISsSaISsEE4sizeEv W 000000000000003e
_ZNKSt6vectorISsSaISsEE5beginEv W 0000000000000054
_ZNKSt6vectorISsSaISsEE8max_sizeEv W 0000000000000061
_ZNKSt6vectorISt4pairISsSsESaIS1_EE12_M_check_lenEmPKc W 00000000000001ae
_ZNKSt6vectorISt4pairISsSsESaIS1_EE4sizeEv W 000000000000003e
_ZNKSt6vectorISt4pairISsSsESaIS1_EE8max_sizeEv W 0000000000000061
_ZNKSt7__cxx1112basic_stringIcSt11char_traitsIcESaIcEE11_M_disjunctEPKc W 0000000000000019
_ZNKSt7__cxx1112basic_stringIcSt11char_traitsIcESaIcEE11_M_is_localEv W 000000000000000b
_ZNKSt7__cxx1112basic_stringIcSt11char_traitsIcESaIcEE12find_last_ofEcm W 0000000000000009
_ZNKSt7__cxx1112basic_stringIcSt11char_traitsIcESaIcEE12find_last_ofEPKcm W 000000000000002a
_ZNKSt7__cxx1112basic_stringIcSt11char_traitsIcESaIcEE12find_last_ofEPKcmm W 0000000000000085
_ZNKSt7__cxx1112basic_stringIcSt11char_traitsIcESaIcEE12find_last_ofERKS4_m W 000000000000000c
_ZNKSt7__cxx1112basic_stringIcSt11char_traitsIcESaIcEE13find_first_ofEcm W 0000000000000009
_ZNKSt7__cxx1112basic_stringIcSt11char_traitsIcESaIcEE13find_first_ofEPKcm W 000000000000002a
_ZNKSt7__cxx1112basic_stringIcSt11char_traitsIcESaIcEE13find_first_ofEPKcmm W 0000000000000072
_ZNKSt7__cxx1112basic_stringIcSt11char_traitsIcESaIcEE13find_first_ofERKS4_m W 000000000000000c
_ZNKSt7__cxx1112basic_stringIcSt11char_traitsIcESaIcEE13get_allocatorEv W 0000000000000004
_ZNKSt7__cxx1112basic_stringIcSt11char_traitsIcESaIcEE13_M_local_dataEv W 0000000000000005
_ZNKSt7__cxx1112basic_stringIcSt11char_traitsIcESaIcEE15_M_check_lengthEmmPKc W 0000000000000024
_ZNKSt7__cxx1112basic_stringIcSt11char_traitsIcESaIcEE16find_last_not_ofEcm W 0000000000000040
_ZNKSt7__cxx1112basic_stringIcSt11char_traitsIcESaIcEE16find_last_not_ofEPKcm W 000000000000002a
_ZNKSt7__cxx1112basic_stringIcSt11char_traitsIcESaIcEE16find_last_not_ofEPKcmm W 0000000000000085
_ZNKSt7__cxx1112basic_stringIcSt11char_traitsIcESaIcEE16find_last_not_ofERKS4_m W 000000000000000c
_ZNKSt7__cxx1112basic_stringIcSt11char_traitsIcESaIcEE16_M_get_allocatorEv W 0000000000000004
_ZNKSt7__cxx1112basic_stringIcSt11char_traitsIcESaIcEE17find_first_not_ofEcm W 0000000000000045
_ZNKSt7__cxx1112basic_stringIcSt11char_traitsIcESaIcEE17find_first_not_ofEPKcm W 000000000000002a
_ZNKSt7__cxx1112basic_stringIcSt11char_traitsIcESaIcEE17find_first_not_ofEPKcmm W 0000000000000070
_ZNKSt7__cxx1112basic_stringIcSt11char_traitsIcESaIcEE17find_first_not_ofERKS4_m W 000000000000000c
_ZNKSt7__cxx1112basic_stringIcSt11char_traitsIcESaIcEE2atEm W 0000000000000022
_ZNKSt7__cxx1112basic_stringIcSt11char_traitsIcESaIcEE3endEv W 0000000000000008
_ZNKSt7__cxx1112basic_stringIcSt11char_traitsIcESaIcEE4backEv W 000000000000000d
_ZNKSt7__cxx1112basic_stringIcSt11char_traitsIcESaIcEE4cendEv W 0000000000000008
_ZNKSt7__cxx1112basic_stringIcSt11char_traitsIcESaIcEE4copyEPcmm W 0000000000000065
_ZNKSt7__cxx1112basic_stringIcSt11char_traitsIcESaIcEE4dataEv W 0000000000000004
_ZNKSt7__cxx1112basic_stringIcSt11char_traitsIcESaIcEE4findEcm W 0000000000000047
_ZNKSt7__cxx1112basic_stringIcSt11char_traitsIcESaIcEE4findEPKcm W 000000000000002a
_ZNKSt7__cxx1112basic_stringIcSt11char_traitsIcESaIcEE4findEPKcmm W 00000000000000da
_ZNKSt7__cxx1112basic_stringIcSt11char_traitsIcESaIcEE4findERKS4_m W 000000000000000c
_ZNKSt7__cxx1112basic_stringIcSt11char_traitsIcESaIcEE4rendEv W 000000000000000a
_ZNKSt7__cxx1112basic_stringIcSt11char_traitsIcESaIcEE4sizeEv W 0000000000000005
_ZNKSt7__cxx1112basic_stringIcSt11char_traitsIcESaIcEE5beginEv W 0000000000000004
_ZNKSt7__cxx1112basic_stringIcSt11char_traitsIcESaIcEE5crendEv W 000000000000000a
_ZNKSt7__cxx1112basic_stringIcSt11char_traitsIcESaIcEE5c_strEv W 0000000000000004
_ZNKSt7__cxx1112basic_stringIcSt11char_traitsIcESaIcEE5emptyEv W 0000000000000009
_ZNKSt7__cxx1112basic_stringIcSt11char_traitsIcESaIcEE5frontEv W 0000000000000004
_ZNKSt7__cxx1112basic_stringIcSt11char_traitsIcESaIcEE5rfindEcm W 0000000000000038
_ZNKSt7__cxx1112basic_stringIcSt11char_traitsIcESaIcEE5rfindEPKcm W 000000000000002a
_ZNKSt7__cxx1112basic_stringIcSt11char_traitsIcESaIcEE5rfindEPKcmm W 0000000000000085
_ZNKSt7__cxx1112basic_stringIcSt11char_traitsIcESaIcEE5rfindERKS4_m W 000000000000000c
_ZNKSt7__cxx1112basic_stringIcSt11char_traitsIcESaIcEE6cbeginEv W 0000000000000004
_ZNKSt7__cxx1112basic_stringIcSt11char_traitsIcESaIcEE6lengthEv W 0000000000000005
_ZNKSt7__cxx1112basic_stringIcSt11char_traitsIcESaIcEE6rbeginEv W 000000000000000e
_ZNKSt7__cxx1112basic_stringIcSt11char_traitsIcESaIcEE6substrEmm W 0000000000000077
_ZNKSt7__cxx1112basic_stringIcSt11char_traitsIcESaIcEE7compareEmmPKc W 000000000000009f
_ZNKSt7__cxx1112basic_stringIcSt11char_traitsIcESaIcEE7compareEmmPKcm W 000000000000008d
_ZNKSt7__cxx1112basic_stringIcSt11char_traitsIcESaIcEE7compareEmmRKS4_ W 000000000000008c
_ZNKSt7__cxx1112basic_stringIcSt11char_traitsIcESaIcEE7compareEmmRKS4_mm W 00000000000000ba
_ZNKSt7__cxx1112basic_stringIcSt11char_traitsIcESaIcEE7compareEPKc W 0000000000000067
_ZNKSt7__cxx1112basic_stringIcSt11char_traitsIcESaIcEE7compareERKS4_ W 0000000000000051
_ZNKSt7__cxx1112basic_stringIcSt11char_traitsIcESaIcEE7crbeginEv W 000000000000000e
_ZNKSt7__cxx1112basic_stringIcSt11char_traitsIcESaIcEE7_M_dataEv W 0000000000000004
_ZNKSt7__cxx1112basic_stringIcSt11char_traitsIcESaIcEE8capacityEv W 0000000000000016
_ZNKSt7__cxx1112basic_stringIcSt11char_traitsIcESaIcEE8max_sizeEv W 000000000000000b
_ZNKSt7__cxx1112basic_stringIcSt11char_traitsIcESaIcEE8_M_checkEmPKc W 0000000000000026
_ZNKSt7__cxx1112basic_stringIcSt11char_traitsIcESaIcEE8_M_limitEmm W 000000000000000f
_ZNKSt7__cxx1112basic_stringIcSt11char_traitsIcESaIcEEixEm W 0000000000000007
_ZNKSt8__detail10_Hash_nodeISt4pairIKSsP9ActorNodeELb1EE7_M_nextEv W 0000000000000023
_ZNKSt8__detail10_Hash_nodeISt4pairIKSsP9MovieNodeELb1EE7_M_nextEv W 0000000000000023
_ZNKSt8__detail10_Select1stclIRSt4pairIKSsP9ActorNodeEEEDTcl3getILi0EEcl7forwardIT_Efp_EEEOS8_ W 0000000000000065
_ZNKSt8__detail10_Select1stclIRSt4pairIKSsP9MovieNodeEEEDTcl3getILi0EEcl7forwardIT_Efp_EEEOS8_ W 0000000000000065
_ZNKSt8__detail14_Node_iteratorISt4pairIKSsP9ActorNodeELb0ELb1EEptEv W 0000000000000047
_ZNKSt8__detail14_Node_iteratorISt4pairIKSsP9MovieNodeELb0ELb1EEptEv W 0000000000000047
_ZNKSt8__detail15_Hash_code_baseISsSt4pairIKSsP9ActorNodeENS_10_Select1stESt4hashISsENS_18_Mod_range_hashingENS_20_Default_ranged_hashELb1EE10_M_extractEv W 0000000000000044
_ZNKSt8__detail15_Hash_code_baseISsSt4pairIKSsP9ActorNodeENS_10_Select1stESt4hashISsENS_18_Mod_range_hashingENS_20_Default_ranged_hashELb1EE12_M_hash_codeERS2_ W 000000000000006c
_ZNKSt8__detail15_Hash_code_baseISsSt4pairIKSsP9ActorNodeENS_10_Select1stESt4hashISsENS_18_Mod_range_hashingENS_20_Default_ranged_hashELb1EE13_M_store_codeEPNS_10_Hash_nodeIS5_Lb1EEEm W 0000000000000031
_ZNKSt8__detail15_Hash_code_baseISsSt4pairIKSsP9ActorNodeENS_10_Select1stESt4hashISsENS_18_Mod_range_hashingENS_20_Default_ranged_hashELb1EE15_M_bucket_indexEPKNS_10_Hash_nodeIS5_Lb1EEEm W 0000000000000078
_ZNKSt8__detail15_Hash_code_baseISsSt4pairIKSsP9ActorNodeENS_10_Select1stESt4hashISsENS_18_Mod_range_hashingENS_20_Default_ranged_hashELb1EE15_M_bucket_indexERS2_mm W 0000000000000078
_ZNKSt8__detail15_Hash_code_baseISsSt4pairIKSsP9ActorNodeENS_10_Select1stESt4hashISsENS_18_Mod_range_hashingENS_20_Default_ranged_hashELb1EE5_M_h1Ev W 0000000000000044
_ZNKSt8__detail15_Hash_code_baseISsSt4pairIKSsP9ActorNodeENS_10_Select1stESt4hashISsENS_18_Mod_range_hashingENS_20_Default_ranged_hashELb1EE5_M_h2Ev W 0000000000000044
_ZNKSt8__detail15_Hash_code_baseISsSt4pairIKSsP9MovieNodeENS_10_Select1stESt4hashISsENS_18_Mod_range_hashingENS_20_Default_ranged_hashELb1EE10_M_extractEv W 0000000000000044
_ZNKSt8__detail15_Hash_code_baseISsSt4pairIKSsP9MovieNodeENS_10_Select1stESt4hashISsENS_18_Mod_range_hashingENS_20_Default_ranged_hashELb1EE12_M_hash_codeERS2_ W 000000000000006c
_ZNKSt8__detail15_Hash_code_baseISsSt4pairIKSsP9MovieNodeENS_10_Select1stESt4hashISsENS_18_Mod_range_hashingENS_20_Default_ranged_hashELb1EE13_M_store_codeEPNS_10_Hash_nodeIS5_Lb1EEEm W 0000000000000031
_ZNKSt8__detail15_Hash_code_baseISsSt4pairIKSsP9MovieNodeENS_10_Select1stESt4hashISsENS_18_Mod_range_hashingENS_20_Default_ranged_hashELb1EE15_M_bucket_indexEPKNS_10_Hash_nodeIS5_Lb1EEEm W 0000000000000078
_ZNKSt8__detail15_Hash_code_baseISsSt4pairIKSsP9MovieNodeENS_10_Select1stESt4hashISsENS_18_Mod_range_hashingENS_20_Default_ranged_hashELb1EE15_M_bucket_indexERS2_mm W 0000000000000078
_ZNKSt8__detail15_Hash_code_baseISsSt4pairIKSsP9MovieNodeENS_10_Select1stESt4hashISsENS_18_Mod_range_hashingENS_20_Default_ranged_hashELb1EE5_M_h1Ev W 0000000000000044
_ZNKSt8__detail15_Hash_code_baseISsSt4pairIKSsP9MovieNodeENS_10_Select1stESt4hashISsENS_18_Mod_range_hashingENS_20_Default_ranged_hashELb1EE5_M_h2Ev W 0000000000000044
_ZNKSt8__detail15_Hashtable_baseISsSt4pairIKSsP9ActorNodeENS_10_Select1stESt8equal_toISsESt4hashISsENS_18_Mod_range_hashingENS_20_Default_ranged_hashENS_17_Hashtable_traitsILb1ELb0ELb1EEEE5_M_eqEv W 0000000000000044
_ZNKSt8__detail15_Hashtable_baseISsSt4pairIKSsP9ActorNodeENS_10_Select1stESt8equal_toISsESt4hashISsENS_18_Mod_range_hashingENS_20_Default_ranged_hashENS_17_Hashtable_traitsILb1ELb0ELb1EEEE9_M_equalsERS2_mPNS_10_Hash_nodeIS5_Lb1EEE W 00000000000000a7
_ZNKSt8__detail15_Hashtable_baseISsSt4pairIKSsP9MovieNodeENS_10_Select1stESt8equal_toISsESt4hashISsENS_18_Mod_range_hashingENS_20_Default_ranged_hashENS_17_Hashtable_traitsILb1ELb0ELb1EEEE5_M_eqEv W 0000000000000044
_ZNKSt8__detail15_Hashtable_baseISsSt4pairIKSsP9MovieNodeENS_10_Select1stESt8equal_toISsESt4hashISsENS_18_Mod_range_hashingENS_20_Default_ranged_hashENS_17_Hashtable_traitsILb1ELb0ELb1EEEE9_M_equalsERS2_mPNS_10_Hash_nodeIS5_Lb1EEE W 00000000000000a7
_ZNKSt8__detail18_Mod_range_hashingclEmm W 0000000000000034
_ZNKSt8__detail20_Prime_rehash_policy8_M_stateEv W 0000000000000024
_ZNKSt8equal_toISsEclERKSsS2_ W 0000000000000051
_ZNKSt8ios_base7failureB5cxx114whatEv T 0000000000000005
_ZNKSt9basic_iosIcSt11char_traitsIcEEcvbEv W 0000000000000008
_ZNKSt9basic_iosIwSt11char_traitsIwEEcvbEv W 0000000000000008
_ZNSaI4EdgeEC1Ev W 000000000000003f
_ZNSaI4EdgeEC2Ev W 000000000000003f
_ZNSaI4EdgeED1Ev W 000000000000003f
_ZNSaI4EdgeED2Ev W 000000000000003f
_ZNSaIP9ActorNodeEC1Ev W 000000000000003f
_ZNSaIP9ActorNodeEC2Ev W 000000000000003f
_ZNSaIPNSt8__detail15_Hash_node_baseEEC1INS_10_Hash_nodeISt4pairIKSsP9ActorNodeELb1EEEEERKSaIT_E W 0000000000000043
_ZNSaIPNSt8__detail15_Hash_node_baseEEC1INS_10_Hash_nodeISt4pairIKSsP9MovieNodeELb1EEEEERKSaIT_E W 0000000000000043
_ZNSaIPNSt8__detail15_Hash_node_baseEEC2INS_10_Hash_nodeISt4pairIKSsP9ActorNodeELb1EEEEERKSaIT_E W 0000000000000043
_ZNSaIPNSt8__detail15_Hash_node_baseEEC2INS_10_Hash_nodeISt4pairIKSsP9MovieNodeELb1EEEEERKSaIT_E W 0000000000000043
_ZNSaIPNSt8__detail15_Hash_node_baseEED1Ev W 000000000000003f
_ZNSaIPNSt8__detail15_Hash_node_baseEED2Ev W 000000000000003f
_ZNSaIPSt4pairISsSsEEC1IS0_EERKSaIT_E W 0000000000000043
_ZNSaIPSt4pairISsSsEEC2IS0_EERKSaIT_E W 0000000000000043
_ZNSaIPSt4pairISsSsEED1Ev W 000000000000003f
_ZNSaIPSt4pairISsSsEED2Ev W 000000000000003f
_ZNSaISsEC1ERKS_ W 000000000000004a
_ZNSaISsEC1Ev W 000000000000003f
_ZNSaISsEC2ERKS_ W 000000000000004a
_ZNSaISsEC2Ev W 000000000000003f
_ZNSaISsED1Ev W 000000000000003f
_ZNSaISsED2Ev W 000000000000003f
_ZNSaISt4pairIKSsP9ActorNodeEEC1INSt8__detail10_Hash_nodeIS3_Lb1EEEEERKSaIT_E W 0000000000000043
_ZNSaISt4pairIKSsP9ActorNodeEEC2INSt8__detail10_Hash_nodeIS3_Lb1EEEEERKSaIT_E W 0000000000000043
_ZNSaISt4pairIKSsP9ActorNodeEED1Ev W 000000000000003f
_ZNSaISt4pairIKSsP9ActorNodeEED2Ev W 000000000000003f
_ZNSaISt4pairIKSsP9MovieNodeEEC1INSt8__detail10_Hash_nodeIS3_Lb1EEEEERKSaIT_E W 0000000000000043
_ZNSaISt4pairIKSsP9MovieNodeEEC2INSt8__detail10_Hash_nodeIS3_Lb1EEEEERKSaIT_E W 0000000000000043
_ZNSaISt4pairIKSsP9MovieNodeEED1Ev W 000000000000003f
_ZNSaISt4pairIKSsP9MovieNodeEED2Ev W 000000000000003f
_ZNSaISt4pairISsSsEEC1ERKS1_ W 000000000000004a
_ZNSaISt4pairISsSsEEC1Ev W 000000000000003f
_ZNSaISt4pairISsSsEEC2ERKS1_ W 000000000000004a
_ZNSaISt4pairISsSsEEC2Ev W 000000000000003f
_ZNSaISt4pairISsSsEED1Ev W 000000000000003f
_ZNSaISt4pairISsSsEED2Ev W 000000000000003f
_ZNSt10_Hash_impl4hashEPKvmm W 0000000000000057
_ZNSt10_HashtableISsSt4pairIKSsP9ActorNodeESaIS4_ENSt8__detail10_Select1stESt8equal_toISsESt4hashISsENS6_18_Mod_range_hashingENS6_20_Default_ranged_hashENS6_20_Prime_rehash_policyENS6_17_Hashtable_traitsILb1ELb0ELb1EEEE10_M_emplaceIJS0_ISsS3_EEEES0_INS6_14_Node_iteratorIS4_Lb0ELb1EEEbESt17integral_constantIbLb1EEDpOT_ W 000000000000035b
_ZNSt10_HashtableISsSt4pairIKSsP9ActorNodeESaIS4_ENSt8__detail10_Select1stESt8equal_toISsESt4hashISsENS6_18_Mod_range_hashingENS6_20_Default_ranged_hashENS6_20_Prime_rehash_policyENS6_17_Hashtable_traitsILb1ELb0ELb1EEEE13_M_rehash_auxEmSt17integral_constantIbLb1EE W 000000000000021a
_ZNSt10_HashtableISsSt4pairIKSsP9ActorNodeESaIS4_ENSt8__detail10_Select1stESt8equal_toISsESt4hashISsENS6_18_Mod_range_hashingENS6_20_Default_ranged_hashENS6_20_Prime_rehash_policyENS6_17_Hashtable_traitsILb1ELb0ELb1EEEE19_M_allocate_bucketsEm W 0000000000000081
_ZNSt10_HashtableISsSt4pairIKSsP9ActorNodeESaIS4_ENSt8__detail10_Select1stESt8equal_toISsESt4hashISsENS6_18_Mod_range_hashingENS6_20_Default_ranged_hashENS6_20_Prime_rehash_policyENS6_17_Hashtable_traitsILb1ELb0ELb1EEEE21_M_deallocate_bucketsEPPNS6_15_Hash_node_baseEm W 000000000000008e
_ZNSt10_HashtableISsSt4pairIKSsP9ActorNodeESaIS4_ENSt8__detail10_Select1stESt8equal_toISsESt4hashISsENS6_18_Mod_range_hashingENS6_20_Default_ranged_hashENS6_20_Prime_rehash_policyENS6_17_Hashtable_traitsILb1ELb0ELb1EEEE21_M_deallocate_bucketsEv W 0000000000000051
_ZNSt10_HashtableISsSt4pairIKSsP9ActorNodeESaIS4_ENSt8__detail10_Select1stESt8equal_toISsESt4hashISsENS6_18_Mod_range_hashingENS6_20_Default_ranged_hashENS6_20_Prime_rehash_policyENS6_17_Hashtable_traitsILb1ELb0ELb1EEEE21_M_insert_unique_nodeEmmPNS6_10_Hash_nodeIS4_Lb1EEE W 00000000000002e9
_ZNSt10_HashtableISsSt4pairIKSsP9ActorNodeESaIS4_ENSt8__detail10_Select1stESt8equal_toISsESt4hashISsENS6_18_Mod_range_hashingENS6_20_Default_ranged_hashENS6_20_Prime_rehash_policyENS6_17_Hashtable_traitsILb1ELb0ELb1EEEE22_M_insert_bucket_beginEmPNS6_10_Hash_nodeIS4_Lb1EEE W 0000000000000149
_ZNSt10_HashtableISsSt4pairIKSsP9ActorNodeESaIS4_ENSt8__detail10_Select1stESt8equal_toISsESt4hashISsENS6_18_Mod_range_hashingENS6_20_Default_ranged_hashENS6_20_Prime_rehash_policyENS6_17_Hashtable_traitsILb1ELb0ELb1EEEE3endEv W 0000000000000047
_ZNSt10_HashtableISsSt4pairIKSsP9ActorNodeESaIS4_ENSt8__detail10_Select1stESt8equal_toISsESt4hashISsENS6_18_Mod_range_hashingENS6_20_Default_ranged_hashENS6_20_Prime_rehash_policyENS6_17_Hashtable_traitsILb1ELb0ELb1EEEE4findERS1_ W 0000000000000114
_ZNSt10_HashtableISsSt4pairIKSsP9ActorNodeESaIS4_ENSt8__detail10_Select1stESt8equal_toISsESt4hashISsENS6_18_Mod_range_hashingENS6_20_Default_ranged_hashENS6_20_Prime_rehash_policyENS6_17_Hashtable_traitsILb1ELb0ELb1EEEE9_M_rehashEmRKm W 00000000000000fa
_ZNSt10_HashtableISsSt4pairIKSsP9MovieNodeESaIS4_ENSt8__detail10_Select1stESt8equal_toISsESt4hashISsENS6_18_Mod_range_hashingENS6_20_Default_ranged_hashENS6_20_Prime_rehash_policyENS6_17_Hashtable_traitsILb1ELb0ELb1EEEE10_M_emplaceIJS0_ISsS3_EEEES0_INS6_14_Node_iteratorIS4_Lb0ELb1EEEbESt17integral_constantIbLb1EEDpOT_ W 000000000000035b
_ZNSt10_HashtableISsSt4pairIKSsP9MovieNodeESaIS4_ENSt8__detail10_Select1stESt8equal_toISsESt4hashISsENS6_18_Mod_range_hashingENS6_20_Default_ranged_hashENS6_20_Prime_rehash_policyENS6_17_Hashtable_traitsILb1ELb0ELb1EEEE13_M_rehash_auxEmSt17integral_constantIbLb1EE W 000000000000021a
_ZNSt10_HashtableISsSt4pairIKSsP9MovieNodeESaIS4_ENSt8__detail10_Select1stESt8equal_toISsESt4hashISsENS6_18_Mod_range_hashingENS6_20_Default_ranged_hashENS6_20_Prime_rehash_policyENS6_17_Hashtable_traitsILb1ELb0ELb1EEEE19_M_allocate_bucketsEm W 0000000000000081
_ZNSt10_HashtableISsSt4pairIKSsP9MovieNodeESaIS4_ENSt8__detail10_Select1stESt8equal_toISsESt4hashISsENS6_18_Mod_range_hashingENS6_20_Default_ranged_hashENS6_20_Prime_rehash_policyENS6_17_Hashtable_traitsILb1ELb0ELb1EEEE21_M_deallocate_bucketsEPPNS6_15_Hash_node_baseEm W 000000000000008e
_ZNSt10_HashtableISsSt4pairIKSsP9MovieNodeESaIS4_ENSt8__detail10_Select1stESt8equal_toISsESt4hashISsENS6_18_Mod_range_hashingENS6_20_Default_ranged_hashENS6_20_Prime_rehash_policyENS6_17_Hashtable_traitsILb1ELb0ELb1EEEE21_M_deallocate_bucketsEv W 0000000000000051
_ZNSt10_HashtableISsSt4pairIKSsP9MovieNodeESaIS4_ENSt8__detail10_Select1stESt8equal_toISsESt4hashISsENS6_18_Mod_range_hashingENS6_20_Default_ranged_hashENS6_20_Prime_rehash_policyENS6_17_Hashtable_traitsILb1ELb0ELb1EEEE21_M_insert_unique_nodeEmmPNS6_10_Hash_nodeIS4_Lb1EEE W 00000000000002e9
_ZNSt10_HashtableISsSt4pairIKSsP9MovieNodeESaIS4_ENSt8__detail10_Select1stESt8equal_toISsESt4hashISsENS6_18_Mod_range_hashingENS6_20_Default_ranged_hashENS6_20_Prime_rehash_policyENS6_17_Hashtable_traitsILb1ELb0ELb1EEEE22_M_insert_bucket_beginEmPNS6_10_Hash_nodeIS4_Lb1EEE W 0000000000000149
_ZNSt10_HashtableISsSt4pairIKSsP9MovieNodeESaIS4_ENSt8__detail10_Select1stESt8equal_toISsESt4hashISsENS6_18_Mod_range_hashingENS6_20_Default_ranged_hashENS6_20_Prime_rehash_policyENS6_17_Hashtable_traitsILb1ELb0ELb1EEEE3endEv W 0000000000000047
_ZNSt10_HashtableISsSt4pairIKSsP9MovieNodeESaIS4_ENSt8__detail10_Select1stESt8equal_toISsESt4hashISsENS6_18_Mod_range_hashingENS6_20_Default_ranged_hashENS6_20_Prime_rehash_policyENS6_17_Hashtable_traitsILb1ELb0ELb1EEEE4findERS1_ W 0000000000000114
_ZNSt10_HashtableISsSt4pairIKSsP9MovieNodeESaIS4_ENSt8__detail10_Select1stESt8equal_toISsESt4hashISsENS6_18_Mod_range_hashingENS6_20_Default_ranged_hashENS6_20_Prime_rehash_policyENS6_17_Hashtable_traitsILb1ELb0ELb1EEEE9_M_rehashEmRKm W 00000000000000fa
_ZNSt10__pair_getILm0EE5__getIKSsP9ActorNodeEERT_RSt4pairIS5_T0_E W 0000000000000020
_ZNSt10__pair_getILm0EE5__getIKSsP9MovieNodeEERT_RSt4pairIS5_T0_E W 0000000000000020
_ZNSt11char_traitsIcE7compareEPKcS2_m W 0000000000000063
_ZNSt11__copy_moveILb1ELb1ESt26random_access_iterator_tagE8__copy_mIP9ActorNodeEEPT_PKS5_S8_S6_ W 000000000000008c
_ZNSt11_Deque_baseISt4pairISsSsESaIS1_EE11_Deque_implC1ERKS2_ W 00000000000000a5
_ZNSt11_Deque_baseISt4pairISsSsESaIS1_EE11_Deque_implC2ERKS2_ W 00000000000000a5
_ZNSt11_Deque_baseISt4pairISsSsESaIS1_EE11_Deque_implD1Ev W 000000000000003f
_ZNSt11_Deque_baseISt4pairISsSsESaIS1_EE11_Deque_implD2Ev W 000000000000003f
_ZNSt11_Deque_baseISt4pairISsSsESaIS1_EE15_M_allocate_mapEm W 00000000000000db
_ZNSt11_Deque_baseISt4pairISsSsESaIS1_EE15_M_create_nodesEPPS1_S5_ W 000000000000011d
_ZNSt11_Deque_baseISt4pairISsSsESaIS1_EE16_M_allocate_nodeEv W 0000000000000066
_ZNSt11_Deque_baseISt4pairISsSsESaIS1_EE16_M_destroy_nodesEPPS1_S5_ W 000000000000007c
_ZNSt11_Deque_baseISt4pairISsSsESaIS1_EE17_M_deallocate_mapEPPS1_m W 0000000000000095
_ZNSt11_Deque_baseISt4pairISsSsESaIS1_EE17_M_initialize_mapEm W 000000000000029e
_ZNSt11_Deque_baseISt4pairISsSsESaIS1_EE18_M_deallocate_nodeEPS1_ W 0000000000000069
_ZNSt11_Deque_baseISt4pairISsSsESaIS1_EE19_M_get_Tp_allocatorEv W 0000000000000020
_ZNSt11_Deque_baseISt4pairISsSsESaIS1_EEC1ERKS2_m W 00000000000000b8
_ZNSt11_Deque_baseISt4pairISsSsESaIS1_EEC2ERKS2_m W 00000000000000b8
_ZNSt11_Deque_baseISt4pairISsSsESaIS1_EED1Ev W 00000000000000c2
_ZNSt11_Deque_baseISt4pairISsSsESaIS1_EED2Ev W 00000000000000c2
_ZNSt11logic_erroraSERKS_ T 0000000000000016
_ZNSt11logic_errorC1EPKc T 0000000000000065
_ZNSt11logic_errorC1ERKNSt7__cxx1112basic_stringIcSt11char_traitsIcESaIcEEE T 000000000000003b
_ZNSt11logic_errorC1ERKS_ T 000000000000001c
_ZNSt11logic_errorC2EPKc T 0000000000000065
_ZNSt11logic_errorC2ERKNSt7__cxx1112basic_stringIcSt11char_traitsIcESaIcEEE T 000000000000003b
_ZNSt11logic_errorC2ERKS_ T 000000000000001c
_ZNSt11range_errorC1EPKc T 0000000000000019
_ZNSt11range_errorC1ERKNSt7__cxx1112basic_stringIcSt11char_traitsIcESaIcEEE T 0000000000000019
_ZNSt11range_errorC2EPKc T 0000000000000019
_ZNSt11range_errorC2ERKNSt7__cxx1112basic_stringIcSt11char_traitsIcESaIcEEE T 0000000000000019
_ZNSt12_Destroy_auxILb0EE9__destroyIPSsEEvT_S3_ W 0000000000000083
_ZNSt12_Destroy_auxILb0EE9__destroyIPSt4pairISsSsEEEvT_S5_ W 0000000000000083
_ZNSt12_Destroy_auxILb0EE9__destroyISt15_Deque_iteratorISt4pairISsSsERS4_PS4_EEEvT_S8_ W 00000000000000df
_ZNSt12_Destroy_auxILb1EE9__destroyIP4EdgeEEvT_S4_ W 0000000000000021
_ZNSt12_Destroy_auxILb1EE9__destroyIPP9ActorNodeEEvT_S5_ W 0000000000000021
_ZNSt12domain_errorC1EPKc T 0000000000000019
_ZNSt12domain_errorC1ERKNSt7__cxx1112basic_stringIcSt11char_traitsIcESaIcEEE T 0000000000000019
_ZNSt12domain_errorC2EPKc T 0000000000000019
_ZNSt12domain_errorC2ERKNSt7__cxx1112basic_stringIcSt11char_traitsIcESaIcEEE T 0000000000000019
_ZNSt12length_errorC1EPKc T 0000000000000019
_ZNSt12length_errorC1ERKNSt7__cxx1112basic_stringIcSt11char_traitsIcESaIcEEE T 0000000000000019
_ZNSt12length_errorC2EPKc T 0000000000000019
_ZNSt12length_errorC2ERKNSt7__cxx1112basic_stringIcSt11char_traitsIcESaIcEEE T 0000000000000019
_ZNSt12out_of_rangeC1EPKc T 0000000000000019
_ZNSt12out_of_rangeC1ERKNSt7__cxx1112basic_stringIcSt11char_traitsIcESaIcEEE T 0000000000000019
_ZNSt12out_of_rangeC2EPKc T 0000000000000019
_ZNSt12out_of_rangeC2ERKNSt7__cxx1112basic_stringIcSt11char_traitsIcESaIcEEE T 0000000000000019
_ZNSt12_Vector_baseI4EdgeSaIS0_EE11_M_allocateEm W 0000000000000070
_ZNSt12_Vector_baseI4EdgeSaIS0_EE12_Vector_implC1Ev W 0000000000000062
_ZNSt12_Vector_baseI4EdgeSaIS0_EE12_Vector_implC2Ev W 0000000000000062
_ZNSt12_Vector_baseI4EdgeSaIS0_EE12_Vector_implD1Ev W 000000000000003f
_ZNSt12_Vector_baseI4EdgeSaIS0_EE12_Vector_implD2Ev W 000000000000003f
_ZNSt12_Vector_baseI4EdgeSaIS0_EE13_M_deallocateEPS0_m W 000000000000006b
_ZNSt12_Vector_baseI4EdgeSaIS0_EE19_M_get_Tp_allocatorEv W 0000000000000020
_ZNSt12_Vector_baseI4EdgeSaIS0_EEC1Ev W 000000000000003f
_ZNSt12_Vector_baseI4EdgeSaIS0_EEC2Ev W 000000000000003f
_ZNSt12_Vector_baseI4EdgeSaIS0_EED1Ev W 0000000000000086
_ZNSt12_Vector_baseI4EdgeSaIS0_EED2Ev W 0000000000000086
_ZNSt12_Vector_baseIP9ActorNodeSaIS1_EE11_M_allocateEm W 0000000000000070
_ZNSt12_Vector_baseIP9ActorNodeSaIS1_EE12_Vector_implC1Ev W 0000000000000062
_ZNSt12_Vector_baseIP9ActorNodeSaIS1_EE12_Vector_implC2Ev W 0000000000000062
_ZNSt12_Vector_baseIP9ActorNodeSaIS1_EE13_M_deallocateEPS1_m W 000000000000006b
_ZNSt12_Vector_baseIP9ActorNodeSaIS1_EE19_M_get_Tp_allocatorEv W 0000000000000020
_ZNSt12_Vector_baseIP9ActorNodeSaIS1_EEC1Ev W 000000000000003f
_ZNSt12_Vector_baseIP9ActorNodeSaIS1_EEC2Ev W 000000000000003f
_ZNSt12_Vector_baseISsSaISsEE11_M_allocateEm W 0000000000000070
_ZNSt12_Vector_baseISsSaISsEE12_Vector_implC1ERKS0_ W 000000000000006d
_ZNSt12_Vector_baseISsSaISsEE12_Vector_implC1Ev W 0000000000000062
_ZNSt12_Vector_baseISsSaISsEE12_Vector_implC2ERKS0_ W 000000000000006d
_ZNSt12_Vector_baseISsSaISsEE12_Vector_implC2Ev W 0000000000000062
_ZNSt12_Vector_baseISsSaISsEE12_Vector_implD1Ev W 000000000000003f
_ZNSt12_Vector_baseISsSaISsEE12_Vector_implD2Ev W 000000000000003f
_ZNSt12_Vector_baseISsSaISsEE13_M_deallocateEPSsm W 000000000000006b
_ZNSt12_Vector_baseISsSaISsEE17_M_create_storageEm W 000000000000007d
_ZNSt12_Vector_baseISsSaISsEE19_M_get_Tp_allocatorEv W 0000000000000020
_ZNSt12_Vector_baseISsSaISsEEC1EmRKS0_ W 00000000000000b8
_ZNSt12_Vector_baseISsSaISsEEC1Ev W 000000000000003f
_ZNSt12_Vector_baseISsSaISsEEC2EmRKS0_ W 00000000000000b8
_ZNSt12_Vector_baseISsSaISsEEC2Ev W 000000000000003f
_ZNSt12_Vector_baseISsSaISsEED1Ev W 0000000000000086
_ZNSt12_Vector_baseISsSaISsEED2Ev W 0000000000000086
_ZNSt12_Vector_baseISt4pairISsSsESaIS1_EE11_M_allocateEm W 0000000000000070
_ZNSt12_Vector_baseISt4pairISsSsESaIS1_EE12_Vector_implC1Ev W 0000000000000062
_ZNSt12_Vector_baseISt4pairISsSsESaIS1_EE12_Vector_implC2Ev W 0000000000000062
_ZNSt12_Vector_baseISt4pairISsSsESaIS1_EE13_M_deallocateEPS1_m W 000000000000006b
_ZNSt12_Vector_baseISt4pairISsSsESaIS1_EE19_M_get_Tp_allocatorEv W 0000000000000020
_ZNSt12_Vector_baseISt4pairISsSsESaIS1_EEC1Ev W 000000000000003f
_ZNSt12_Vector_baseISt4pairISsSsESaIS1_EEC2Ev W 000000000000003f
_ZNSt13move_iteratorIP4EdgeEC1ES1_ W 000000000000002c
_ZNSt13move_iteratorIP4EdgeEC2ES1_ W 000000000000002c
_ZNSt13move_iteratorIP4EdgeEppEv W 0000000000000032
_ZNSt13move_iteratorIPP9ActorNodeEC1ES2_ W 000000000000002c
_ZNSt13move_iteratorIPP9ActorNodeEC2ES2_ W 000000000000002c
_ZNSt13move_iteratorIPSsEC1ES0_ W 000000000000002c
_ZNSt13move_iteratorIPSsEC2ES0_ W 000000000000002c
_ZNSt13move_iteratorIPSsEppEv W 0000000000000032
_ZNSt13move_iteratorIPSt4pairISsSsEEC1ES2_ W 000000000000002c
_ZNSt13move_iteratorIPSt4pairISsSsEEC2ES2_ W 000000000000002c
_ZNSt13move_iteratorIPSt4pairISsSsEEppEv W 0000000000000032
_ZNSt13runtime_erroraSERKS_ T 0000000000000016
_ZNSt13runtime_errorC1EPKc T 0000000000000065
_ZNSt13runtime_errorC1ERKNSt7__cxx1112basic_stringIcSt11char_traitsIcESaIcEEE T 000000000000003b
_ZNSt13runtime_errorC1ERKS_ T 000000000000001c
_ZNSt13runtime_errorC2EPKc T 0000000000000065
_ZNSt13runtime_errorC2ERKNSt7__cxx1112basic_stringIcSt11char_traitsIcESaIcEEE T 000000000000003b
_ZNSt13runtime_errorC2ERKS_ T 000000000000001c
_ZNSt13unordered_mapISsP9ActorNodeSt4hashISsESt8equal_toISsESaISt4pairIKSsS1_EEE3endEv W 0000000000000044
_ZNSt13unordered_mapISsP9ActorNodeSt4hashISsESt8equal_toISsESaISt4pairIKSsS1_EEE4findERS7_ W 000000000000004f
_ZNSt13unordered_mapISsP9ActorNodeSt4hashISsESt8equal_toISsESaISt4pairIKSsS1_EEE6insertIS6_ISsS1_EvEES6_INSt8__detail14_Node_iteratorIS8_Lb0ELb1EEEbEOT_ W 000000000000006c
_ZNSt13unordered_mapISsP9MovieNodeSt4hashISsESt8equal_toISsESaISt4pairIKSsS1_EEE3endEv W 0000000000000044
_ZNSt13unordered_mapISsP9MovieNodeSt4hashISsESt8equal_toISsESaISt4pairIKSsS1_EEE4findERS7_ W 000000000000004f
_ZNSt13unordered_mapISsP9MovieNodeSt4hashISsESt8equal_toISsESaISt4pairIKSsS1_EEE6insertIS6_ISsS1_EvEES6_INSt8__detail14_Node_iteratorIS8_Lb0ELb1EEEbEOT_ W 000000000000006c
_ZNSt14overflow_errorC1EPKc T 0000000000000019
_ZNSt14overflow_errorC1ERKNSt7__cxx1112basic_stringIcSt11char_traitsIcESaIcEEE T 0000000000000019
_ZNSt14overflow_errorC2EPKc T 0000000000000019
_ZNSt14overflow_errorC2ERKNSt7__cxx1112basic_stringIcSt11char_traitsIcESaIcEEE T 0000000000000019
_ZNSt14pointer_traitsIPNSt8__detail10_Hash_nodeISt4pairIKSsP9ActorNodeELb1EEEE10pointer_toERS7_ W 0000000000000044
_ZNSt14pointer_traitsIPNSt8__detail10_Hash_nodeISt4pairIKSsP9MovieNodeELb1EEEE10pointer_toERS7_ W 0000000000000044
_ZNSt14pointer_traitsIPPNSt8__detail15_Hash_node_baseEE10pointer_toERS2_ W 0000000000000044
_ZNSt15_Deque_iteratorISt4pairISsSsERKS1_PS2_E11_M_set_nodeEPPS1_ W 000000000000007b
_ZNSt15_Deque_iteratorISt4pairISsSsERKS1_PS2_E14_S_buffer_sizeEv W 000000000000003a
_ZNSt15_Deque_iteratorISt4pairISsSsERKS1_PS2_EC1ERKS_IS1_RS1_PS1_E W 000000000000005f
_ZNSt15_Deque_iteratorISt4pairISsSsERKS1_PS2_EC2ERKS_IS1_RS1_PS1_E W 000000000000005f
_ZNSt15_Deque_iteratorISt4pairISsSsERKS1_PS2_EppEv W 0000000000000098
_ZNSt15_Deque_iteratorISt4pairISsSsERS1_PS1_E11_M_set_nodeEPS3_ W 000000000000007b
_ZNSt15_Deque_iteratorISt4pairISsSsERS1_PS1_E14_S_buffer_sizeEv W 000000000000003a
_ZNSt15_Deque_iteratorISt4pairISsSsERS1_PS1_EC1ERKS4_ W 000000000000005f
_ZNSt15_Deque_iteratorISt4pairISsSsERS1_PS1_EC1Ev W 000000000000004c
_ZNSt15_Deque_iteratorISt4pairISsSsERS1_PS1_EC2ERKS4_ W 000000000000005f
_ZNSt15_Deque_iteratorISt4pairISsSsERS1_PS1_EC2Ev W 000000000000004c
_ZNSt15_Deque_iteratorISt4pairISsSsERS1_PS1_EmmEv W 0000000000000098
_ZNSt15_Deque_iteratorISt4pairISsSsERS1_PS1_EppEv W 0000000000000098
_ZNSt15underflow_errorC1EPKc T 0000000000000019
_ZNSt15underflow_errorC1ERKNSt7__cxx1112basic_stringIcSt11char_traitsIcESaIcEEE T 0000000000000019
_ZNSt15underflow_errorC2EPKc T 0000000000000019
_ZNSt15underflow_errorC2ERKNSt7__cxx1112basic_stringIcSt11char_traitsIcESaIcEEE T 0000000000000019
_ZNSt16allocator_traitsISaI4EdgeEE10deallocateERS1_PS0_m W 0000000000000052
_ZNSt16allocator_traitsISaI4EdgeEE7destroyIS0_EEvRS1_PT_ W 000000000000004a
_ZNSt16allocator_traitsISaI4EdgeEE8allocateERS1_m W 0000000000000054
_ZNSt16allocator_traitsISaI4EdgeEE8max_sizeERKS1_ W 0000000000000044
_ZNSt16allocator_traitsISaI4EdgeEE9constructIS0_JRKS0_EEEvRS1_PT_DpOT0_ W 000000000000006f
_ZNSt16allocator_traitsISaINSt8__detail10_Hash_nodeISt4pairIKSsP9ActorNodeELb1EEEEE10deallocateERS8_PS7_m W 0000000000000052
_ZNSt16allocator_traitsISaINSt8__detail10_Hash_nodeISt4pairIKSsP9ActorNodeELb1EEEEE8allocateERS8_m W 0000000000000054
_ZNSt16allocator_traitsISaINSt8__detail10_Hash_nodeISt4pairIKSsP9MovieNodeELb1EEEEE10deallocateERS8_PS7_m W 0000000000000052
_ZNSt16allocator_traitsISaINSt8__detail10_Hash_nodeISt4pairIKSsP9MovieNodeELb1EEEEE8allocateERS8_m W 0000000000000054
_ZNSt16allocator_traitsISaIP9ActorNodeEE10deallocateERS2_PS1_m W 0000000000000052
_ZNSt16allocator_traitsISaIP9ActorNodeEE7destroyIS1_EEvRS2_PT_ W 000000000000004a
_ZNSt16allocator_traitsISaIP9ActorNodeEE8allocateERS2_m W 0000000000000054
_ZNSt16allocator_traitsISaIP9ActorNodeEE8max_sizeERKS2_ W 0000000000000044
_ZNSt16allocator_traitsISaIP9ActorNodeEE9constructIS1_JRKS1_EEEvRS2_PT_DpOT0_ W 000000000000006f
_ZNSt16allocator_traitsISaIPNSt8__detail15_Hash_node_baseEEE10deallocateERS3_PS2_m W 0000000000000052
_ZNSt16allocator_traitsISaIPNSt8__detail15_Hash_node_baseEEE8allocateERS3_m W 0000000000000054
_ZNSt16allocator_traitsISaIPSt4pairISsSsEEE10deallocateERS3_PS2_m W 0000000000000052
_ZNSt16allocator_traitsISaIPSt4pairISsSsEEE8allocateERS3_m W 0000000000000054
_ZNSt16allocator_traitsISaISsEE10deallocateERS0_PSsm W 0000000000000052
_ZNSt16allocator_traitsISaISsEE37select_on_container_copy_constructionERKS0_ W 000000000000004d
_ZNSt16allocator_traitsISaISsEE7destroyISsEEvRS0_PT_ W 000000000000004a
_ZNSt16allocator_traitsISaISsEE8allocateERS0_m W 0000000000000054
_ZNSt16allocator_traitsISaISsEE8max_sizeERKS0_ W 0000000000000044
_ZNSt16allocator_traitsISaISsEE9constructISsJRKSsEEEvRS0_PT_DpOT0_ W 000000000000006f
_ZNSt16allocator_traitsISaISt4pairIKSsP9ActorNodeEEE7destroyIS4_EEvRS5_PT_ W 000000000000004a
_ZNSt16allocator_traitsISaISt4pairIKSsP9ActorNodeEEE9constructIS4_JS0_ISsS3_EEEEvRS5_PT_DpOT0_ W 000000000000006f
_ZNSt16allocator_traitsISaISt4pairIKSsP9MovieNodeEEE7destroyIS4_EEvRS5_PT_ W 000000000000004a
_ZNSt16allocator_traitsISaISt4pairIKSsP9MovieNodeEEE9constructIS4_JS0_ISsS3_EEEEvRS5_PT_DpOT0_ W 000000000000006f
_ZNSt16allocator_traitsISaISt4pairISsSsEEE10deallocateERS2_PS1_m W 0000000000000052
_ZNSt16allocator_traitsISaISt4pairISsSsEEE37select_on_container_copy_constructionERKS2_ W 000000000000004d
_ZNSt16allocator_traitsISaISt4pairISsSsEEE7destroyIS1_EEvRS2_PT_ W 000000000000004a
_ZNSt16allocator_traitsISaISt4pairISsSsEEE8allocateERS2_m W 0000000000000054
_ZNSt16allocator_traitsISaISt4pairISsSsEEE8max_sizeERKS2_ W 0000000000000044
_ZNSt16allocator_traitsISaISt4pairISsSsEEE9constructIS1_JS1_EEEvRS2_PT_DpOT0_ W 000000000000006f
_ZNSt16invalid_argumentC1EPKc T 0000000000000019
_ZNSt16invalid_argumentC1ERKNSt7__cxx1112basic_stringIcSt11char_traitsIcESaIcEEE T 0000000000000019
_ZNSt16invalid_argumentC2EPKc T 0000000000000019
_ZNSt16invalid_argumentC2ERKNSt7__cxx1112basic_stringIcSt11char_traitsIcESaIcEEE T 0000000000000019
_ZNSt20__uninitialized_copyILb0EE13__uninit_copyIN9__gnu_cxx17__normal_iteratorIPKSsSt6vectorISsSaISsEEEEPSsEET0_T_SC_SB_ W 00000000000001af
_ZNSt20__uninitialized_copyILb0EE13__uninit_copyISt13move_iteratorIP4EdgeES4_EET0_T_S7_S6_ W 0000000000000198
_ZNSt20__uninitialized_copyILb0EE13__uninit_copyISt13move_iteratorIPSsES3_EET0_T_S6_S5_ W 00000000000001af
_ZNSt20__uninitialized_copyILb0EE13__uninit_copyISt13move_iteratorIPSt4pairISsSsEES5_EET0_T_S8_S7_ W 00000000000001af
_ZNSt20__uninitialized_copyILb0EE13__uninit_copyISt15_Deque_iteratorISt4pairISsSsERKS4_PS5_ES2_IS4_RS4_PS4_EEET0_T_SD_SC_ W 0000000000000243
_ZNSt20__uninitialized_copyILb1EE13__uninit_copyISt13move_iteratorIPP9ActorNodeES5_EET0_T_S8_S7_ W 0000000000000057
_ZNSt3_V214error_categoryD0Ev T 0000000000000012
_ZNSt3_V214error_categoryD1Ev T 0000000000000002
_ZNSt3_V214error_categoryD2Ev T 0000000000000002
_ZNSt3_V215system_categoryEv T 0000000000000008
_ZNSt3_V216generic_categoryEv T 0000000000000008
_ZNSt4pairIKSsP9ActorNodeEC1ISsS2_Lb1EEEOS_IT_T0_E W 000000000000009d
_ZNSt4pairIKSsP9ActorNodeEC2ISsS2_Lb1EEEOS_IT_T0_E W 000000000000009d
_ZNSt4pairIKSsP9ActorNodeED1Ev W 000000000000003f
_ZNSt4pairIKSsP9ActorNodeED2Ev W 000000000000003f
_ZNSt4pairIKSsP9MovieNodeEC1ISsS2_Lb1EEEOS_IT_T0_E W 000000000000009d
_ZNSt4pairIKSsP9MovieNodeEC2ISsS2_Lb1EEEOS_IT_T0_E W 000000000000009d
_ZNSt4pairIKSsP9MovieNodeED1Ev W 000000000000003f
_ZNSt4pairIKSsP9MovieNodeED2Ev W 000000000000003f
_ZNSt4pairINSt8__detail14_Node_iteratorIS_IKSsP9ActorNodeELb0ELb1EEEbEC1IS6_bLb1EEEOT_OT0_ W 000000000000007f
_ZNSt4pairINSt8__detail14_Node_iteratorIS_IKSsP9ActorNodeELb0ELb1EEEbEC2IS6_bLb1EEEOT_OT0_ W 000000000000007f
_ZNSt4pairINSt8__detail14_Node_iteratorIS_IKSsP9MovieNodeELb0ELb1EEEbEC1IS6_bLb1EEEOT_OT0_ W 000000000000007f
_ZNSt4pairINSt8__detail14_Node_iteratorIS_IKSsP9MovieNodeELb0ELb1EEEbEC2IS6_bLb1EEEOT_OT0_ W 000000000000007f
_ZNSt4pairISsP9ActorNodeEC1IRSsRS1_Lb1EEEOT_OT0_ W 000000000000009d
_ZNSt4pairISsP9ActorNodeEC2IRSsRS1_Lb1EEEOT_OT0_ W 000000000000009d
_ZNSt4pairISsP9ActorNodeED1Ev W 000000000000003f
_ZNSt4pairISsP9ActorNodeED2Ev W 000000000000003f
_ZNSt4pairISsP9MovieNodeEC1IRSsRS1_Lb1EEEOT_OT0_ W 000000000000009d
_ZNSt4pairISsP9MovieNodeEC2IRSsRS1_Lb1EEEOT_OT0_ W 000000000000009d
_ZNSt4pairISsP9MovieNodeED1Ev W 000000000000003f
_ZNSt4pairISsP9MovieNodeED2Ev W 000000000000003f
_ZNSt4pairISsSsEC1EOS0_ W 0000000000000077
_ZNSt4pairISsSsEC1ERKS0_ W 00000000000000bc
_ZNSt4pairISsSsEC1IRSsS2_Lb1EEEOT_OT0_ W 00000000000000f6
_ZNSt4pairISsSsEC2EOS0_ W 0000000000000077
_ZNSt4pairISsSsEC2ERKS0_ W 00000000000000bc
_ZNSt4pairISsSsEC2IRSsS2_Lb1EEEOT_OT0_ W 00000000000000f6
_ZNSt4pairISsSsED1Ev W 0000000000000061
_ZNSt4pairISsSsED2Ev W 0000000000000061
_ZNSt4pairISsSt5stackIS_ISsSsESt5dequeIS1_SaIS1_EEEEC1ERKS6_ W 00000000000000bc
_ZNSt4pairISsSt5stackIS_ISsSsESt5dequeIS1_SaIS1_EEEEC2ERKS6_ W 00000000000000bc
_ZNSt4pairISsSt5stackIS_ISsSsESt5dequeIS1_SaIS1_EEEED1Ev W 0000000000000061
_ZNSt4pairISsSt5stackIS_ISsSsESt5dequeIS1_SaIS1_EEEED2Ev W 0000000000000061
_ZNSt5dequeISt4pairISsSsESaIS1_EE14_S_buffer_sizeEv W 000000000000003a
_ZNSt5dequeISt4pairISsSsESaIS1_EE15_M_destroy_dataESt15_Deque_iteratorIS1_RS1_PS1_ES7_RKS2_ W 00000000000000c1
_ZNSt5dequeISt4pairISsSsESaIS1_EE15_M_pop_back_auxEv W 00000000000000db
_ZNSt5dequeISt4pairISsSsESaIS1_EE19_M_destroy_data_auxESt15_Deque_iteratorIS1_RS1_PS1_ES7_ W 00000000000001f8
_ZNSt5dequeISt4pairISsSsESaIS1_EE3endEv W 0000000000000051
_ZNSt5dequeISt4pairISsSsESaIS1_EE4backEv W 0000000000000087
_ZNSt5dequeISt4pairISsSsESaIS1_EE5beginEv W 0000000000000051
_ZNSt5dequeISt4pairISsSsESaIS1_EE8pop_backEv W 00000000000000a5
_ZNSt5dequeISt4pairISsSsESaIS1_EEC1ERKS3_ W 0000000000000263
_ZNSt5dequeISt4pairISsSsESaIS1_EEC2ERKS3_ W 0000000000000263
_ZNSt5dequeISt4pairISsSsESaIS1_EED1Ev W 00000000000000d9
_ZNSt5dequeISt4pairISsSsESaIS1_EED2Ev W 00000000000000d9
_ZNSt5stackISsSsEC1ISsvEEv W 000000000000003f
_ZNSt5stackISsSsEC2ISsvEEv W 000000000000003f
_ZNSt5stackISt4pairISsSsESt5dequeIS1_SaIS1_EEE3popEv W 000000000000003f
_ZNSt5stackISt4pairISsSsESt5dequeIS1_SaIS1_EEE3topEv W 0000000000000044
_ZNSt5stackISt4pairISsSsESt5dequeIS1_SaIS1_EEEC1ERKS5_ W 000000000000004a
_ZNSt5stackISt4pairISsSsESt5dequeIS1_SaIS1_EEEC2ERKS5_ W 000000000000004a
_ZNSt5stackISt4pairISsSsESt5dequeIS1_SaIS1_EEED1Ev W 000000000000003f
_ZNSt5stackISt4pairISsSsESt5dequeIS1_SaIS1_EEED2Ev W 000000000000003f
_ZNSt6vectorI4EdgeSaIS0_EE17_M_realloc_insertIJRKS0_EEEvN9__gnu_cxx17__normal_iteratorIPS0_S2_EEDpOT_ W 000000000000049a
_ZNSt6vectorI4EdgeSaIS0_EE3endEv W 000000000000004d
_ZNSt6vectorI4EdgeSaIS0_EE5beginEv W 0000000000000049
_ZNSt6vectorI4EdgeSaIS0_EE9push_backERKS0_ W 00000000000000d5
_ZNSt6vectorI4EdgeSaIS0_EEC1Ev W 000000000000003f
_ZNSt6vectorI4EdgeSaIS0_EEC2Ev W 000000000000003f
_ZNSt6vectorI4EdgeSaIS0_EED1Ev W 000000000000008c
_ZNSt6vectorI4EdgeSaIS0_EED2Ev W 000000000000008c
_ZNSt6vectorIP9ActorNodeSaIS1_EE17_M_realloc_insertIJRKS1_EEEvN9__gnu_cxx17__normal_iteratorIPS1_S3_EEDpOT_ W 000000000000049d
_ZNSt6vectorIP9ActorNodeSaIS1_EE3endEv W 000000000000004d
_ZNSt6vectorIP9ActorNodeSaIS1_EE5beginEv W 0000000000000049
_ZNSt6vectorIP9ActorNodeSaIS1_EE9push_backERKS1_ W 00000000000000d5
_ZNSt6vectorIP9ActorNodeSaIS1_EEC1Ev W 000000000000003f
_ZNSt6vectorIP9ActorNodeSaIS1_EEC2Ev W 000000000000003f
_ZNSt6vectorIS_ISsSaISsEESaIS1_EE3endEv W 000000000000004d
_ZNSt6vectorIS_ISsSaISsEESaIS1_EE5beginEv W 0000000000000049
_ZNSt6vectorISsSaISsEE17_M_realloc_insertIJRKSsEEEvN9__gnu_cxx17__normal_iteratorIPSsS1_EEDpOT_ W 000000000000049f
_ZNSt6vectorISsSaISsEE3endEv W 000000000000004d
_ZNSt6vectorISsSaISsEE5beginEv W 0000000000000049
_ZNSt6vectorISsSaISsEE9push_backERKSs W 00000000000000d5
_ZNSt6vectorISsSaISsEEC1ERKS1_ W 00000000000001f1
_ZNSt6vectorISsSaISsEEC1Ev W 000000000000003f
_ZNSt6vectorISsSaISsEEC2ERKS1_ W 00000000000001f1
_ZNSt6vectorISsSaISsEEC2Ev W 000000000000003f
_ZNSt6vectorISsSaISsEED1Ev W 000000000000008c
_ZNSt6vectorISsSaISsEED2Ev W 000000000000008c
_ZNSt6vectorISsSaISsEEixEm W 0000000000000035
_ZNSt6vectorISt4pairISsSsESaIS1_EE12emplace_backIJS1_EEEvDpOT_ W 0000000000000118
_ZNSt6vectorISt4pairISsSsESaIS1_EE17_M_realloc_insertIJS1_EEEvN9__gnu_cxx17__normal_iteratorIPS1_S3_EEDpOT_ W 0000000000000480
_ZNSt6vectorISt4pairISsSsESaIS1_EE3endEv W 000000000000004d
_ZNSt6vectorISt4pairISsSsESaIS1_EE5beginEv W 0000000000000049
_ZNSt6vectorISt4pairISsSsESaIS1_EE9push_backEOS1_ W 0000000000000067
_ZNSt6vectorISt4pairISsSsESaIS1_EEC1Ev W 000000000000003f
_ZNSt6vectorISt4pairISsSsESaIS1_EEC2Ev W 000000000000003f
_ZNSt6vectorISt4pairISsSt5stackIS0_ISsSsESt5dequeIS2_SaIS2_EEEESaIS7_EE3endEv W 000000000000004d
_ZNSt6vectorISt4pairISsSt5stackIS0_ISsSsESt5dequeIS2_SaIS2_EEEESaIS7_EE5beginEv W 0000000000000049
_ZNSt7__cxx1112basic_stringIcSt11char_traitsIcESaIcEE10_M_destroyEm W 0000000000000008
_ZNSt7__cxx1112basic_stringIcSt11char_traitsIcESaIcEE10_M_disposeEv W 000000000000001a
_ZNSt7__cxx1112basic_stringIcSt11char_traitsIcESaIcEE10_M_replaceEmmPKcm W 00000000000002cb
_ZNSt7__cxx1112basic_stringIcSt11char_traitsIcESaIcEE10_S_compareEmm W 0000000000000020
_ZNSt7__cxx1112basic_stringIcSt11char_traitsIcESaIcEE11_M_capacityEm W 0000000000000005
_ZNSt7__cxx1112basic_stringIcSt11char_traitsIcESaIcEE12_Alloc_hiderC1EPcOS3_ W 0000000000000004
_ZNSt7__cxx1112basic_stringIcSt11char_traitsIcESaIcEE12_Alloc_hiderC1EPcRKS3_ W 0000000000000004
_ZNSt7__cxx1112basic_stringIcSt11char_traitsIcESaIcEE12_Alloc_hiderC2EPcOS3_ W 0000000000000004
_ZNSt7__cxx1112basic_stringIcSt11char_traitsIcESaIcEE12_Alloc_hiderC2EPcRKS3_ W 0000000000000004
_ZNSt7__cxx1112basic_stringIcSt11char_traitsIcESaIcEE12_M_constructEmc W 000000000000008a
_ZNSt7__cxx1112basic_stringIcSt11char_traitsIcESaIcEE12_M_constructIN9__gnu_cxx17__normal_iteratorIPcS4_EEEEvT_SA_St20forward_iterator_tag W 00000000000000a7
_ZNSt7__cxx1112basic_stringIcSt11char_traitsIcESaIcEE12_M_constructIN9__gnu_cxx17__normal_iteratorIPKcS4_EEEEvT_SB_St20forward_iterator_tag W 00000000000000a7
_ZNSt7__cxx1112basic_stringIcSt11char_traitsIcESaIcEE12_M_constructIPcEEvT_S7_St20forward_iterator_tag W 00000000000000c6
_ZNSt7__cxx1112basic_stringIcSt11char_traitsIcESaIcEE12_M_constructIPKcEEvT_S8_St20forward_iterator_tag W 00000000000000c6
_ZNSt7__cxx1112basic_stringIcSt11char_traitsIcESaIcEE13_M_local_dataEv W 0000000000000005
_ZNSt7__cxx1112basic_stringIcSt11char_traitsIcESaIcEE13_M_set_lengthEm W 000000000000000c
_ZNSt7__cxx1112basic_stringIcSt11char_traitsIcESaIcEE13_S_copy_charsEPcN9__gnu_cxx17__normal_iteratorIPKcS4_EESA_ W 000000000000001e
_ZNSt7__cxx1112basic_stringIcSt11char_traitsIcESaIcEE13_S_copy_charsEPcN9__gnu_cxx17__normal_iteratorIS5_S4_EES8_ W 000000000000001e
_ZNSt7__cxx1112basic_stringIcSt11char_traitsIcESaIcEE13_S_copy_charsEPcPKcS7_ W 000000000000001e
_ZNSt7__cxx1112basic_stringIcSt11char_traitsIcESaIcEE13_S_copy_charsEPcS5_S5_ W 000000000000001e
_ZNSt7__cxx1112basic_stringIcSt11char_traitsIcESaIcEE13shrink_to_fitEv W 000000000000003e
_ZNSt7__cxx1112basic_stringIcSt11char_traitsIcESaIcEE14_M_replace_auxEmmmc W 00000000000000ee
_ZNSt7__cxx1112basic_stringIcSt11char_traitsIcESaIcEE16_M_get_allocatorEv W 0000000000000004
_ZNSt7__cxx1112basic_stringIcSt11char_traitsIcESaIcEE18_M_construct_aux_2Emc W 0000000000000008
_ZNSt7__cxx1112basic_stringIcSt11char_traitsIcESaIcEE2atEm W 0000000000000022
_ZNSt7__cxx1112basic_stringIcSt11char_traitsIcESaIcEE3endEv W 0000000000000008
_ZNSt7__cxx1112basic_stringIcSt11char_traitsIcESaIcEE4backEv W 000000000000000d
_ZNSt7__cxx1112basic_stringIcSt11char_traitsIcESaIcEE4nposE u 0000000000000008
_ZNSt7__cxx1112basic_stringIcSt11char_traitsIcESaIcEE4rendEv W 000000000000000a
_ZNSt7__cxx1112basic_stringIcSt11char_traitsIcESaIcEE4swapERS4_ W 000000000000011b
_ZNSt7__cxx1112basic_stringIcSt11char_traitsIcESaIcEE5beginEv W 0000000000000004
_ZNSt7__cxx1112basic_stringIcSt11char_traitsIcESaIcEE5clearEv W 000000000000000f
_ZNSt7__cxx1112basic_stringIcSt11char_traitsIcESaIcEE5eraseEmm W 0000000000000058
_ZNSt7__cxx1112basic_stringIcSt11char_traitsIcESaIcEE5eraseEN9__gnu_cxx17__normal_iteratorIPKcS4_EE W 000000000000002a
_ZNSt7__cxx1112basic_stringIcSt11char_traitsIcESaIcEE5eraseEN9__gnu_cxx17__normal_iteratorIPKcS4_EES9_ W 000000000000004d
_ZNSt7__cxx1112basic_stringIcSt11char_traitsIcESaIcEE5frontEv W 0000000000000004
_ZNSt7__cxx1112basic_stringIcSt11char_traitsIcESaIcEE6appendEmc W 0000000000000012
_ZNSt7__cxx1112basic_stringIcSt11char_traitsIcESaIcEE6appendEPKc W 0000000000000047
_ZNSt7__cxx1112basic_stringIcSt11char_traitsIcESaIcEE6appendEPKcm W 0000000000000028
_ZNSt7__cxx1112basic_stringIcSt11char_traitsIcESaIcEE6appendERKS4_ W 000000000000000c
_ZNSt7__cxx1112basic_stringIcSt11char_traitsIcESaIcEE6appendERKS4_mm W 0000000000000040
_ZNSt7__cxx1112basic_stringIcSt11char_traitsIcESaIcEE6appendESt16initializer_listIcE W 0000000000000028
_ZNSt7__cxx1112basic_stringIcSt11char_traitsIcESaIcEE6assignEmc W 0000000000000012
_ZNSt7__cxx1112basic_stringIcSt11char_traitsIcESaIcEE6assignEOS4_ W 0000000000000097
_ZNSt7__cxx1112basic_stringIcSt11char_traitsIcESaIcEE6assignEPKc W 000000000000002e
_ZNSt7__cxx1112basic_stringIcSt11char_traitsIcESaIcEE6assignEPKcm W 0000000000000011
_ZNSt7__cxx1112basic_stringIcSt11char_traitsIcESaIcEE6assignERKS4_ W 000000000000000e
_ZNSt7__cxx1112basic_stringIcSt11char_traitsIcESaIcEE6assignERKS4_mm W 0000000000000043
_ZNSt7__cxx1112basic_stringIcSt11char_traitsIcESaIcEE6assignESt16initializer_listIcE W 0000000000000011
_ZNSt7__cxx1112basic_stringIcSt11char_traitsIcESaIcEE6insertEmmc W 0000000000000033
_ZNSt7__cxx1112basic_stringIcSt11char_traitsIcESaIcEE6insertEmPKc W 000000000000004d
_ZNSt7__cxx1112basic_stringIcSt11char_traitsIcESaIcEE6insertEmPKcm W 0000000000000032
_ZNSt7__cxx1112basic_stringIcSt11char_traitsIcESaIcEE6insertEmRKS4_ W 0000000000000036
_ZNSt7__cxx1112basic_stringIcSt11char_traitsIcESaIcEE6insertEmRKS4_mm W 000000000000006d
_ZNSt7__cxx1112basic_stringIcSt11char_traitsIcESaIcEE6insertEN9__gnu_cxx17__normal_iteratorIPcS4_EESt16initializer_listIcE W 0000000000000035
_ZNSt7__cxx1112basic_stringIcSt11char_traitsIcESaIcEE6insertEN9__gnu_cxx17__normal_iteratorIPKcS4_EEc W 0000000000000030
_ZNSt7__cxx1112basic_stringIcSt11char_traitsIcESaIcEE6insertEN9__gnu_cxx17__normal_iteratorIPKcS4_EEmc W 000000000000002e
_ZNSt7__cxx1112basic_stringIcSt11char_traitsIcESaIcEE6rbeginEv W 000000000000000e
_ZNSt7__cxx1112basic_stringIcSt11char_traitsIcESaIcEE6resizeEm W 0000000000000007
_ZNSt7__cxx1112basic_stringIcSt11char_traitsIcESaIcEE6resizeEmc W 0000000000000034
_ZNSt7__cxx1112basic_stringIcSt11char_traitsIcESaIcEE7_M_dataEPc W 0000000000000004
_ZNSt7__cxx1112basic_stringIcSt11char_traitsIcESaIcEE7replaceEmmmc W 000000000000003e
_ZNSt7__cxx1112basic_stringIcSt11char_traitsIcESaIcEE7replaceEmmPKc W 000000000000006b
_ZNSt7__cxx1112basic_stringIcSt11char_traitsIcESaIcEE7replaceEmmPKcm W 000000000000003a
_ZNSt7__cxx1112basic_stringIcSt11char_traitsIcESaIcEE7replaceEmmRKS4_ W 0000000000000041
_ZNSt7__cxx1112basic_stringIcSt11char_traitsIcESaIcEE7replaceEmmRKS4_mm W 0000000000000078
_ZNSt7__cxx1112basic_stringIcSt11char_traitsIcESaIcEE7replaceEN9__gnu_cxx17__normal_iteratorIPKcS4_EES9_mc W 000000000000000f
_ZNSt7__cxx1112basic_stringIcSt11char_traitsIcESaIcEE7replaceEN9__gnu_cxx17__normal_iteratorIPKcS4_EES9_NS6_IPcS4_EESB_ W 0000000000000049
_ZNSt7__cxx1112basic_stringIcSt11char_traitsIcESaIcEE7replaceEN9__gnu_cxx17__normal_iteratorIPKcS4_EES9_PcSA_ W 0000000000000049
_ZNSt7__cxx1112basic_stringIcSt11char_traitsIcESaIcEE7replaceEN9__gnu_cxx17__normal_iteratorIPKcS4_EES9_RKS4_ W 000000000000004d
_ZNSt7__cxx1112basic_stringIcSt11char_traitsIcESaIcEE7replaceEN9__gnu_cxx17__normal_iteratorIPKcS4_EES9_S8_ W 0000000000000074
_ZNSt7__cxx1112basic_stringIcSt11char_traitsIcESaIcEE7replaceEN9__gnu_cxx17__normal_iteratorIPKcS4_EES9_S8_m W 0000000000000046
_ZNSt7__cxx1112basic_stringIcSt11char_traitsIcESaIcEE7replaceEN9__gnu_cxx17__normal_iteratorIPKcS4_EES9_S8_S8_ W 0000000000000049
_ZNSt7__cxx1112basic_stringIcSt11char_traitsIcESaIcEE7replaceEN9__gnu_cxx17__normal_iteratorIPKcS4_EES9_S9_S9_ W 0000000000000049
_ZNSt7__cxx1112basic_stringIcSt11char_traitsIcESaIcEE7replaceEN9__gnu_cxx17__normal_iteratorIPKcS4_EES9_St16initializer_listIcE W 0000000000000046
_ZNSt7__cxx1112basic_stringIcSt11char_traitsIcESaIcEE7reserveEm W 0000000000000110
_ZNSt7__cxx1112basic_stringIcSt11char_traitsIcESaIcEE7_S_copyEPcPKcm W 000000000000001e
_ZNSt7__cxx1112basic_stringIcSt11char_traitsIcESaIcEE7_S_moveEPcPKcm W 000000000000001e
_ZNSt7__cxx1112basic_stringIcSt11char_traitsIcESaIcEE8_M_eraseEmm W 0000000000000067
_ZNSt7__cxx1112basic_stringIcSt11char_traitsIcESaIcEE8pop_backEv W 0000000000000012
_ZNSt7__cxx1112basic_stringIcSt11char_traitsIcESaIcEE9_M_appendEPKcm W 000000000000007a
_ZNSt7__cxx1112basic_stringIcSt11char_traitsIcESaIcEE9_M_assignERKS4_ W 00000000000000e0
_ZNSt7__cxx1112basic_stringIcSt11char_traitsIcESaIcEE9_M_createERmm W 000000000000006c
_ZNSt7__cxx1112basic_stringIcSt11char_traitsIcESaIcEE9_M_lengthEm W 0000000000000005
_ZNSt7__cxx1112basic_stringIcSt11char_traitsIcESaIcEE9_M_mutateEmmPKcm W 0000000000000167
_ZNSt7__cxx1112basic_stringIcSt11char_traitsIcESaIcEE9push_backEc W 0000000000000065
_ZNSt7__cxx1112basic_stringIcSt11char_traitsIcESaIcEE9_S_assignEPcmc W 0000000000000023
_ZNSt7__cxx1112basic_stringIcSt11char_traitsIcESaIcEEaSEc W 000000000000001d
_ZNSt7__cxx1112basic_stringIcSt11char_traitsIcESaIcEEaSEOS4_ W 0000000000000097
_ZNSt7__cxx1112basic_stringIcSt11char_traitsIcESaIcEEaSEPKc W 000000000000002e
_ZNSt7__cxx1112basic_stringIcSt11char_traitsIcESaIcEEaSERKS4_ W 000000000000000e
_ZNSt7__cxx1112basic_stringIcSt11char_traitsIcESaIcEEaSESt16initializer_listIcE W 000000000000001a
_ZNSt7__cxx1112basic_stringIcSt11char_traitsIcESaIcEEC1EmcRKS3_ W 000000000000000f
_ZNSt7__cxx1112basic_stringIcSt11char_traitsIcESaIcEEC1EOS4_ W 000000000000004b
_ZNSt7__cxx1112basic_stringIcSt11char_traitsIcESaIcEEC1EOS4_RKS3_ W 0000000000000060
_ZNSt7__cxx1112basic_stringIcSt11char_traitsIcESaIcEEC1EPKcmRKS3_ W 000000000000001a
_ZNSt7__cxx1112basic_stringIcSt11char_traitsIcESaIcEEC1EPKcRKS3_ W 0000000000000045
_ZNSt7__cxx1112basic_stringIcSt11char_traitsIcESaIcEEC1ERKS3_ W 0000000000000014
_ZNSt7__cxx1112basic_stringIcSt11char_traitsIcESaIcEEC1ERKS4_ W 0000000000000024
_ZNSt7__cxx1112basic_stringIcSt11char_traitsIcESaIcEEC1ERKS4_mm W 0000000000000051
_ZNSt7__cxx1112basic_stringIcSt11char_traitsIcESaIcEEC1ERKS4_mmRKS3_ W 0000000000000051
_ZNSt7__cxx1112basic_stringIcSt11char_traitsIcESaIcEEC1ERKS4_mRKS3_ W 0000000000000046
_ZNSt7__cxx1112basic_stringIcSt11char_traitsIcESaIcEEC1ERKS4_RKS3_ W 0000000000000024
_ZNSt7__cxx1112basic_stringIcSt11char_traitsIcESaIcEEC1ESt16initializer_listIcERKS3_ W 000000000000001a
_ZNSt7__cxx1112basic_stringIcSt11char_traitsIcESaIcEEC1Ev W 0000000000000014
_ZNSt7__cxx1112basic_stringIcSt11char_traitsIcESaIcEEC1IN9__gnu_cxx17__normal_iteratorIPcS4_EEvEET_SA_RKS3_ W 0000000000000017
_ZNSt7__cxx1112basic_stringIcSt11char_traitsIcESaIcEEC1IPcvEET_S7_RKS3_ W 0000000000000017
_ZNSt7__cxx1112basic_stringIcSt11char_traitsIcESaIcEEC1IPKcvEET_S8_RKS3_ W 0000000000000017
_ZNSt7__cxx1112basic_stringIcSt11char_traitsIcESaIcEEC2EmcRKS3_ W 000000000000000f
_ZNSt7__cxx1112basic_stringIcSt11char_traitsIcESaIcEEC2EOS4_ W 000000000000004b
_ZNSt7__cxx1112basic_stringIcSt11char_traitsIcESaIcEEC2EOS4_RKS3_ W 0000000000000060
_ZNSt7__cxx1112basic_stringIcSt11char_traitsIcESaIcEEC2EPKcmRKS3_ W 000000000000001a
_ZNSt7__cxx1112basic_stringIcSt11char_traitsIcESaIcEEC2EPKcRKS3_ W 0000000000000045
_ZNSt7__cxx1112basic_stringIcSt11char_traitsIcESaIcEEC2ERKS3_ W 0000000000000014
_ZNSt7__cxx1112basic_stringIcSt11char_traitsIcESaIcEEC2ERKS4_ W 0000000000000024
_ZNSt7__cxx1112basic_stringIcSt11char_traitsIcESaIcEEC2ERKS4_mm W 0000000000000051
_ZNSt7__cxx1112basic_stringIcSt11char_traitsIcESaIcEEC2ERKS4_mmRKS3_ W 0000000000000051
_ZNSt7__cxx1112basic_stringIcSt11char_traitsIcESaIcEEC2ERKS4_mRKS3_ W 0000000000000046
_ZNSt7__cxx1112basic_stringIcSt11char_traitsIcESaIcEEC2ERKS4_RKS3_ W 0000000000000024
_ZNSt7__cxx1112basic_stringIcSt11char_traitsIcESaIcEEC2ESt16initializer_listIcERKS3_ W 000000000000001a
_ZNSt7__cxx1112basic_stringIcSt11char_traitsIcESaIcEEC2Ev W 0000000000000014
_ZNSt7__cxx1112basic_stringIcSt11char_traitsIcESaIcEEC2IN9__gnu_cxx17__normal_iteratorIPcS4_EEvEET_SA_RKS3_ W 0000000000000017
_ZNSt7__cxx1112basic_stringIcSt11char_traitsIcESaIcEEC2IPcvEET_S7_RKS3_ W 0000000000000017
_ZNSt7__cxx1112basic_stringIcSt11char_traitsIcESaIcEEC2IPKcvEET_S8_RKS3_ W 0000000000000017
_ZNSt7__cxx1112basic_stringIcSt11char_traitsIcESaIcEED1Ev W 000000000000001a
_ZNSt7__cxx1112basic_stringIcSt11char_traitsIcESaIcEED2Ev W 000000000000001a
_ZNSt7__cxx1112basic_stringIcSt11char_traitsIcESaIcEEixEm W 0000000000000007
_ZNSt7__cxx1112basic_stringIcSt11char_traitsIcESaIcEEpLEc W 000000000000006b
_ZNSt7__cxx1112basic_stringIcSt11char_traitsIcESaIcEEpLEPKc W 0000000000000047
_ZNSt7__cxx1112basic_stringIcSt11char_traitsIcESaIcEEpLERKS4_ W 000000000000000c
_ZNSt7__cxx1112basic_stringIcSt11char_traitsIcESaIcEEpLESt16initializer_listIcE W 0000000000000028
_ZNSt8__detail10_Hash_nodeISt4pairIKSsP9ActorNodeELb1EEC1Ev W 000000000000003f
_ZNSt8__detail10_Hash_nodeISt4pairIKSsP9ActorNodeELb1EEC2Ev W 000000000000003f
_ZNSt8__detail10_Hash_nodeISt4pairIKSsP9MovieNodeELb1EEC1Ev W 000000000000003f
_ZNSt8__detail10_Hash_nodeISt4pairIKSsP9MovieNodeELb1EEC2Ev W 000000000000003f
_ZNSt8__detail12_Insert_baseISsSt4pairIKSsP9ActorNodeESaIS5_ENS_10_Select1stESt8equal_toISsESt4hashISsENS_18_Mod_range_hashingENS_20_Default_ranged_hashENS_20_Prime_rehash_policyENS_17_Hashtable_traitsILb1ELb0ELb1EEEE20_M_conjure_hashtableEv W 0000000000000020
_ZNSt8__detail12_Insert_baseISsSt4pairIKSsP9MovieNodeESaIS5_ENS_10_Select1stESt8equal_toISsESt4hashISsENS_18_Mod_range_hashingENS_20_Default_ranged_hashENS_20_Prime_rehash_policyENS_17_Hashtable_traitsILb1ELb0ELb1EEEE20_M_conjure_hashtableEv W 0000000000000020
_ZNSt8__detail13_Equal_helperISsSt4pairIKSsP9ActorNodeENS_10_Select1stESt8equal_toISsEmLb1EE9_S_equalsERKS8_RKS6_RS2_mPNS_10_Hash_nodeIS5_Lb1EEE W 00000000000000e5
_ZNSt8__detail13_Equal_helperISsSt4pairIKSsP9MovieNodeENS_10_Select1stESt8equal_toISsEmLb1EE9_S_equalsERKS8_RKS6_RS2_mPNS_10_Hash_nodeIS5_Lb1EEE W 00000000000000e5
_ZNSt8__detail14_Node_iteratorISt4pairIKSsP9ActorNodeELb0ELb1EEC1EPNS_10_Hash_nodeIS5_Lb1EEE W 000000000000004a
_ZNSt8__detail14_Node_iteratorISt4pairIKSsP9ActorNodeELb0ELb1EEC2EPNS_10_Hash_nodeIS5_Lb1EEE W 000000000000004a
_ZNSt8__detail14_Node_iteratorISt4pairIKSsP9MovieNodeELb0ELb1EEC1EPNS_10_Hash_nodeIS5_Lb1EEE W 000000000000004a
_ZNSt8__detail14_Node_iteratorISt4pairIKSsP9MovieNodeELb0ELb1EEC2EPNS_10_Hash_nodeIS5_Lb1EEE W 000000000000004a
_ZNSt8__detail15_Hash_code_baseISsSt4pairIKSsP9ActorNodeENS_10_Select1stESt4hashISsENS_18_Mod_range_hashingENS_20_Default_ranged_hashELb1EE10_M_extractEv W 0000000000000044
_ZNSt8__detail15_Hash_code_baseISsSt4pairIKSsP9MovieNodeENS_10_Select1stESt4hashISsENS_18_Mod_range_hashingENS_20_Default_ranged_hashELb1EE10_M_extractEv W 0000000000000044
_ZNSt8__detail15_Hash_node_baseC1Ev W 0000000000000028
_ZNSt8__detail15_Hash_node_baseC2Ev W 0000000000000028
_ZNSt8__detail16_Hashtable_allocISaINS_10_Hash_nodeISt4pairIKSsP9ActorNodeELb1EEEEE16_M_allocate_nodeIJS2_ISsS5_EEEEPS7_DpOT_ W 00000000000002d8
_ZNSt8__detail16_Hashtable_allocISaINS_10_Hash_nodeISt4pairIKSsP9ActorNodeELb1EEEEE17_M_node_allocatorEv W 0000000000000044
_ZNSt8__detail16_Hashtable_allocISaINS_10_Hash_nodeISt4pairIKSsP9ActorNodeELb1EEEEE18_M_deallocate_nodeEPS7_ W 00000000000001c5
_ZNSt8__detail16_Hashtable_allocISaINS_10_Hash_nodeISt4pairIKSsP9ActorNodeELb1EEEEE19_M_allocate_bucketsEm W 000000000000013c
_ZNSt8__detail16_Hashtable_allocISaINS_10_Hash_nodeISt4pairIKSsP9ActorNodeELb1EEEEE21_M_deallocate_bucketsEPPNS_15_Hash_node_baseEm W 0000000000000139
_ZNSt8__detail16_Hashtable_allocISaINS_10_Hash_nodeISt4pairIKSsP9MovieNodeELb1EEEEE16_M_allocate_nodeIJS2_ISsS5_EEEEPS7_DpOT_ W 00000000000002d8
_ZNSt8__detail16_Hashtable_allocISaINS_10_Hash_nodeISt4pairIKSsP9MovieNodeELb1EEEEE17_M_node_allocatorEv W 0000000000000044
_ZNSt8__detail16_Hashtable_allocISaINS_10_Hash_nodeISt4pairIKSsP9MovieNodeELb1EEEEE18_M_deallocate_nodeEPS7_ W 00000000000001c5
_ZNSt8__detail16_Hashtable_allocISaINS_10_Hash_nodeISt4pairIKSsP9MovieNodeELb1EEEEE19_M_allocate_bucketsEm W 000000000000013c
_ZNSt8__detail16_Hashtable_allocISaINS_10_Hash_nodeISt4pairIKSsP9MovieNodeELb1EEEEE21_M_deallocate_bucketsEPPNS_15_Hash_node_baseEm W 0000000000000139
_ZNSt8__detail19_Node_iterator_baseISt4pairIKSsP9ActorNodeELb1EEC1EPNS_10_Hash_nodeIS5_Lb1EEE W 000000000000002c
_ZNSt8__detail19_Node_iterator_baseISt4pairIKSsP9ActorNodeELb1EEC2EPNS_10_Hash_nodeIS5_Lb1EEE W 000000000000002c
_ZNSt8__detail19_Node_iterator_baseISt4pairIKSsP9MovieNodeELb1EEC1EPNS_10_Hash_nodeIS5_Lb1EEE W 000000000000002c
_ZNSt8__detail19_Node_iterator_baseISt4pairIKSsP9MovieNodeELb1EEC2EPNS_10_Hash_nodeIS5_Lb1EEE W 000000000000002c
_ZNSt8__detail20_Prime_rehash_policy8_M_resetEm W 000000000000002d
_ZNSt8__detail21_Hash_node_value_baseISt4pairIKSsP9ActorNodeEE4_M_vEv W 0000000000000044
_ZNSt8__detail21_Hash_node_value_baseISt4pairIKSsP9ActorNodeEE9_M_valptrEv W 0000000000000048
_ZNSt8__detail21_Hash_node_value_baseISt4pairIKSsP9ActorNodeEEC1Ev W 000000000000003f
_ZNSt8__detail21_Hash_node_value_baseISt4pairIKSsP9ActorNodeEEC2Ev W 000000000000003f
_ZNSt8__detail21_Hash_node_value_baseISt4pairIKSsP9MovieNodeEE4_M_vEv W 0000000000000044
_ZNSt8__detail21_Hash_node_value_baseISt4pairIKSsP9MovieNodeEE9_M_valptrEv W 0000000000000048
_ZNSt8__detail21_Hash_node_value_baseISt4pairIKSsP9MovieNodeEEC1Ev W 000000000000003f
_ZNSt8__detail21_Hash_node_value_baseISt4pairIKSsP9MovieNodeEEC2Ev W 000000000000003f
_ZNSt8__detail21_Hashtable_ebo_helperILi0ENS_10_Select1stELb1EE6_S_getERS2_ W 0000000000000020
_ZNSt8__detail21_Hashtable_ebo_helperILi0ENS_10_Select1stELb1EE7_S_cgetERKS2_ W 0000000000000020
_ZNSt8__detail21_Hashtable_ebo_helperILi0ESaINS_10_Hash_nodeISt4pairIKSsP9ActorNodeELb1EEEELb1EE6_S_getERS9_ W 0000000000000020
_ZNSt8__detail21_Hashtable_ebo_helperILi0ESaINS_10_Hash_nodeISt4pairIKSsP9MovieNodeELb1EEEELb1EE6_S_getERS9_ W 0000000000000020
_ZNSt8__detail21_Hashtable_ebo_helperILi0ESt8equal_toISsELb1EE7_S_cgetERKS3_ W 0000000000000020
_ZNSt8__detail21_Hashtable_ebo_helperILi1ESt4hashISsELb1EE7_S_cgetERKS3_ W 0000000000000020
_ZNSt8__detail21_Hashtable_ebo_helperILi2ENS_18_Mod_range_hashingELb1EE7_S_cgetERKS2_ W 0000000000000020
_ZNSt8__detail7_InsertISsSt4pairIKSsP9ActorNodeESaIS5_ENS_10_Select1stESt8equal_toISsESt4hashISsENS_18_Mod_range_hashingENS_20_Default_ranged_hashENS_20_Prime_rehash_policyENS_17_Hashtable_traitsILb1ELb0ELb1EEELb0EE6insertIS1_ISsS4_EvEES1_INS_14_Node_iteratorIS5_Lb0ELb1EEEbEOT_ W 00000000000000b8
_ZNSt8__detail7_InsertISsSt4pairIKSsP9MovieNodeESaIS5_ENS_10_Select1stESt8equal_toISsESt4hashISsENS_18_Mod_range_hashingENS_20_Default_ranged_hashENS_20_Prime_rehash_policyENS_17_Hashtable_traitsILb1ELb0ELb1EEELb0EE6insertIS1_ISsS4_EvEES1_INS_14_Node_iteratorIS5_Lb0ELb1EEEbEOT_ W 00000000000000b8
_ZNSt8__detaileqISt4pairIKSsP9ActorNodeELb1EEEbRKNS_19_Node_iterator_baseIT_XT0_EEESA_ W 0000000000000036
_ZNSt8__detaileqISt4pairIKSsP9MovieNodeELb1EEEbRKNS_19_Node_iterator_baseIT_XT0_EEESA_ W 0000000000000036
_ZNSt8ios_base7failureB5cxx11C1EPKcRKSt10error_code T 0000000000000282
_ZNSt8ios_base7failureB5cxx11C1ERKNSt7__cxx1112basic_stringIcSt11char_traitsIcESaIcEEE T 0000000000000339
_ZNSt8ios_base7failureB5cxx11C1ERKNSt7__cxx1112basic_stringIcSt11char_traitsIcESaIcEEERKSt10error_code T 0000000000000369
_ZNSt8ios_base7failureB5cxx11C2EPKcRKSt10error_code T 0000000000000282
_ZNSt8ios_base7failureB5cxx11C2ERKNSt7__cxx1112basic_stringIcSt11char_traitsIcESaIcEEE T 0000000000000339
_ZNSt8ios_base7failureB5cxx11C2ERKNSt7__cxx1112basic_stringIcSt11char_traitsIcESaIcEEERKSt10error_code T 0000000000000369
_ZNSt8ios_base7failureB5cxx11D0Ev T 0000000000000012
_ZNSt8ios_base7failureB5cxx11D1Ev T 0000000000000013
_ZNSt8ios_base7failureB5cxx11D2Ev T 0000000000000013
_ZNSt8ios_base7_M_moveERS_ T 000000000000010a
_ZNSt8ios_base7_M_swapERS_ T 00000000000001b3
_ZNSt9basic_iosIcSt11char_traitsIcEE4moveEOS2_ W 0000000000000065
_ZNSt9basic_iosIcSt11char_traitsIcEE4moveERS2_ W 0000000000000065
_ZNSt9basic_iosIcSt11char_traitsIcEE4swapERS2_ W 0000000000000086
_ZNSt9basic_iosIcSt11char_traitsIcEE9set_rdbufEPSt15basic_streambufIcS1_E W 0000000000000008
_ZNSt9basic_iosIwSt11char_traitsIwEE4moveEOS2_ W 0000000000000064
_ZNSt9basic_iosIwSt11char_traitsIwEE4moveERS2_ W 0000000000000064
_ZNSt9basic_iosIwSt11char_traitsIwEE4swapERS2_ W 0000000000000084
_ZNSt9basic_iosIwSt11char_traitsIwEE9set_rdbufEPSt15basic_streambufIwS1_E W 0000000000000008
_ZnwmPv W 0000000000000024
_ZSt10_ConstructI4EdgeJS0_EEvPT_DpOT0_ W 00000000000000a9
_ZSt10_ConstructISsJRKSsEEvPT_DpOT0_ W 00000000000000ee
_ZSt10_ConstructISsJSsEEvPT_DpOT0_ W 00000000000000a5
_ZSt10_ConstructISt4pairISsSsEJRKS1_EEvPT_DpOT0_ W 00000000000000ee
_ZSt10_ConstructISt4pairISsSsEJS1_EEvPT_DpOT0_ W 00000000000000a5
_ZSt11__addressofI4EdgeEPT_RS1_ W 0000000000000020
_ZSt11__addressofINSt8__detail10_Hash_nodeISt4pairIKSsP9ActorNodeELb1EEEEPT_RS8_ W 0000000000000020
_ZSt11__addressofINSt8__detail10_Hash_nodeISt4pairIKSsP9MovieNodeELb1EEEEPT_RS8_ W 0000000000000020
_ZSt11__addressofIPNSt8__detail15_Hash_node_baseEEPT_RS3_ W 0000000000000020
_ZSt11__addressofISsEPT_RS0_ W 0000000000000020
_ZSt11__addressofISt4pairISsSsEEPT_RS2_ W 0000000000000020
_ZSt12__miter_baseIPP9ActorNodeEDTcl12__miter_basecldtfp_4baseEEESt13move_iteratorIT_E W 0000000000000061
_ZSt12__miter_baseIPP9ActorNodeET_S3_ W 0000000000000020
_ZSt12__niter_baseIPP9ActorNodeET_S3_ W 0000000000000020
_ZSt13__copy_move_aILb1EPP9ActorNodeS2_ET1_T0_S4_S3_ W 000000000000005b
_ZSt14__copy_move_a2ILb1EPP9ActorNodeS2_ET1_T0_S4_S3_ W 00000000000000bb
_ZSt16__deque_buf_sizem W 0000000000000054
_ZSt17iostream_categoryv T 000000000000005e
_ZSt18uninitialized_copyIN9__gnu_cxx17__normal_iteratorIPKSsSt6vectorISsSaISsEEEEPSsET0_T_SA_S9_ W 000000000000005b
_ZSt18uninitialized_copyISt13move_iteratorIP4EdgeES2_ET0_T_S5_S4_ W 000000000000005b
_ZSt18uninitialized_copyISt13move_iteratorIPP9ActorNodeES3_ET0_T_S6_S5_ W 000000000000005b
_ZSt18uninitialized_copyISt13move_iteratorIPSsES1_ET0_T_S4_S3_ W 000000000000005b
_ZSt18uninitialized_copyISt13move_iteratorIPSt4pairISsSsEES3_ET0_T_S6_S5_ W 000000000000005b
_ZSt18uninitialized_copyISt15_Deque_iteratorISt4pairISsSsERKS2_PS3_ES0_IS2_RS2_PS2_EET0_T_SB_SA_ W 00000000000000b4
_ZSt22__uninitialized_copy_aIN9__gnu_cxx17__normal_iteratorIPKSsSt6vectorISsSaISsEEEEPSsSsET0_T_SA_S9_RSaIT1_E W 000000000000005b
_ZSt22__uninitialized_copy_aISt13move_iteratorIP4EdgeES2_S1_ET0_T_S5_S4_RSaIT1_E W 000000000000005b
_ZSt22__uninitialized_copy_aISt13move_iteratorIPP9ActorNodeES3_S2_ET0_T_S6_S5_RSaIT1_E W 000000000000005b
_ZSt22__uninitialized_copy_aISt13move_iteratorIPSsES1_SsET0_T_S4_S3_RSaIT1_E W 000000000000005b
_ZSt22__uninitialized_copy_aISt13move_iteratorIPSt4pairISsSsEES3_S2_ET0_T_S6_S5_RSaIT1_E W 000000000000005b
_ZSt22__uninitialized_copy_aISt15_Deque_iteratorISt4pairISsSsERKS2_PS3_ES0_IS2_RS2_PS2_ES2_ET0_T_SB_SA_RSaIT1_E W 00000000000000b4
_ZSt24__throw_out_of_range_fmtPKcz T 000000000000011a
_ZSt32__make_move_if_noexcept_iteratorI4EdgeSt13move_iteratorIPS0_EET0_PT_ W 0000000000000049
_ZSt32__make_move_if_noexcept_iteratorIP9ActorNodeSt13move_iteratorIPS1_EET0_PT_ W 0000000000000049
_ZSt32__make_move_if_noexcept_iteratorISsSt13move_iteratorIPSsEET0_PT_ W 0000000000000049
_ZSt32__make_move_if_noexcept_iteratorISt4pairISsSsESt13move_iteratorIPS1_EET0_PT_ W 0000000000000049
_ZSt34__uninitialized_move_if_noexcept_aIP4EdgeS1_SaIS0_EET0_T_S4_S3_RT1_ W 00000000000000a2
_ZSt34__uninitialized_move_if_noexcept_aIPP9ActorNodeS2_SaIS1_EET0_T_S5_S4_RT1_ W 00000000000000a2
_ZSt34__uninitialized_move_if_noexcept_aIPSsS0_SaISsEET0_T_S3_S2_RT1_ W 00000000000000a2
_ZSt34__uninitialized_move_if_noexcept_aIPSt4pairISsSsES2_SaIS1_EET0_T_S5_S4_RT1_ W 00000000000000a2
_ZSt3getILm0EKSsP9ActorNodeERNSt13tuple_elementIXT_ESt4pairIT0_T1_EE4typeERS7_ W 0000000000000044
_ZSt3getILm0EKSsP9MovieNodeERNSt13tuple_elementIXT_ESt4pairIT0_T1_EE4typeERS7_ W 0000000000000044
_ZSt3maxImERKT_S2_S2_ W 000000000000004f
_ZSt4copyISt13move_iteratorIPP9ActorNodeES3_ET0_T_S6_S5_ W 000000000000009a
_ZSt4moveIRSsEONSt16remove_referenceIT_E4typeEOS2_ W 0000000000000020
_ZSt4moveIRSt4pairISsSsEEONSt16remove_referenceIT_E4typeEOS4_ W 0000000000000020
_ZSt4stoiRKSsPmi W 0000000000000084
_ZSt7forwardI4EdgeEOT_RNSt16remove_referenceIS1_E4typeE W 0000000000000020
_ZSt7forwardIbEOT_RNSt16remove_referenceIS0_E4typeE W 0000000000000020
_ZSt7forwardINSt8__detail14_Node_iteratorISt4pairIKSsP9ActorNodeELb0ELb1EEEEOT_RNSt16remove_referenceIS8_E4typeE W 0000000000000020
_ZSt7forwardINSt8__detail14_Node_iteratorISt4pairIKSsP9MovieNodeELb0ELb1EEEEOT_RNSt16remove_referenceIS8_E4typeE W 0000000000000020
_ZSt7forwardIP9ActorNodeEOT_RNSt16remove_referenceIS2_E4typeE W 0000000000000020
_ZSt7forwardIP9MovieNodeEOT_RNSt16remove_referenceIS2_E4typeE W 0000000000000020
_ZSt7forwardIRK4EdgeEOT_RNSt16remove_referenceIS3_E4typeE W 0000000000000020
_ZSt7forwardIRKP9ActorNodeEOT_RNSt16remove_referenceIS4_E4typeE W 0000000000000020
_ZSt7forwardIRKSsEOT_RNSt16remove_referenceIS2_E4typeE W 0000000000000020
_ZSt7forwardIRKSt4pairISsSsEEOT_RNSt16remove_referenceIS4_E4typeE W 0000000000000020
_ZSt7forwardIRP9ActorNodeEOT_RNSt16remove_referenceIS3_E4typeE W 0000000000000020
_ZSt7forwardIRP9MovieNodeEOT_RNSt16remove_referenceIS3_E4typeE W 0000000000000020
_ZSt7forwardIRSsEOT_RNSt16remove_referenceIS1_E4typeE W 0000000000000020
_ZSt7forwardIRSt4pairIKSsP9ActorNodeEEOT_RNSt16remove_referenceIS6_E4typeE W 0000000000000020
_ZSt7forwardIRSt4pairIKSsP9MovieNodeEEOT_RNSt16remove_referenceIS6_E4typeE W 0000000000000020
_ZSt7forwardISsEOT_RNSt16remove_referenceIS0_E4typeE W 0000000000000020
_ZSt7forwardISt4pairISsP9ActorNodeEEOT_RNSt16remove_referenceIS4_E4typeE W 0000000000000020
_ZSt7forwardISt4pairISsP9MovieNodeEEOT_RNSt16remove_referenceIS4_E4typeE W 0000000000000020
_ZSt7forwardISt4pairISsSsEEOT_RNSt16remove_referenceIS2_E4typeE W 0000000000000020
_ZSt8_DestroyIP4EdgeEvT_S2_ W 000000000000004a
_ZSt8_DestroyIP4EdgeS0_EvT_S2_RSaIT0_E W 000000000000004e
_ZSt8_DestroyIPP9ActorNodeEvT_S3_ W 000000000000004a
_ZSt8_DestroyIPP9ActorNodeS1_EvT_S3_RSaIT0_E W 000000000000004e
_ZSt8_DestroyIPSsEvT_S1_ W 000000000000004a
_ZSt8_DestroyIPSsSsEvT_S1_RSaIT0_E W 000000000000004e
_ZSt8_DestroyIPSt4pairISsSsEEvT_S3_ W 000000000000004a
_ZSt8_DestroyIPSt4pairISsSsES1_EvT_S3_RSaIT0_E W 000000000000004e
_ZSt8_DestroyISsEvPT_ W 000000000000003f
_ZSt8_DestroyISt15_Deque_iteratorISt4pairISsSsERS2_PS2_EEvT_S6_ W 0000000000000094
_ZSt8_DestroyISt4pairISsSsEEvPT_ W 000000000000003f
_ZSt9addressofINSt8__detail10_Hash_nodeISt4pairIKSsP9ActorNodeELb1EEEEPT_RS8_ W 0000000000000044
_ZSt9addressofINSt8__detail10_Hash_nodeISt4pairIKSsP9MovieNodeELb1EEEEPT_RS8_ W 0000000000000044
_ZSt9addressofIPNSt8__detail15_Hash_node_baseEEPT_RS3_ W 0000000000000044
_ZSt9make_pairINSt8__detail14_Node_iteratorISt4pairIKSsP9ActorNodeELb0ELb1EEEbES2_INSt17__decay_and_stripIT_E6__typeENS8_IT0_E6__typeEEOS9_OSC_ W 0000000000000098
_ZSt9make_pairINSt8__detail14_Node_iteratorISt4pairIKSsP9MovieNodeELb0ELb1EEEbES2_INSt17__decay_and_stripIT_E6__typeENS8_IT0_E6__typeEEOS9_OSC_ W 0000000000000098
_ZSt9make_pairIRSsRP9ActorNodeESt4pairINSt17__decay_and_stripIT_E6__typeENS5_IT0_E6__typeEEOS6_OS9_ W 0000000000000098
_ZSt9make_pairIRSsRP9MovieNodeESt4pairINSt17__decay_and_stripIT_E6__typeENS5_IT0_E6__typeEEOS6_OS9_ W 0000000000000098
_ZSt9make_pairIRSsS0_ESt4pairINSt17__decay_and_stripIT_E6__typeENS2_IT0_E6__typeEEOS3_OS6_ W 0000000000000098
_ZSteqIcEN9__gnu_cxx11__enable_ifIXsrSt9__is_charIT_E7__valueEbE6__typeERKSbIS3_St11char_traitsIS3_ESaIS3_EESC_ W 0000000000000132
_ZSteqIP4EdgeEbRKSt13move_iteratorIT_ES6_ W 0000000000000071
_ZSteqIPSsEbRKSt13move_iteratorIT_ES5_ W 0000000000000071
_ZSteqIPSt4pairISsSsEEbRKSt13move_iteratorIT_ES7_ W 0000000000000071
_ZSteqISt4pairISsSsERKS1_PS2_EbRKSt15_Deque_iteratorIT_T0_T1_ESB_ W 0000000000000036
_ZSteqISt4pairISsSsERS1_PS1_EbRKSt15_Deque_iteratorIT_T0_T1_ESA_ W 0000000000000036
_ZStmiISt4pairISsSsERS1_PS1_ENSt15_Deque_iteratorIT_T0_T1_E15difference_typeERKS8_SB_ W 00000000000000a4
_ZStneIP4EdgeEbRKSt13move_iteratorIT_ES6_ W 0000000000000050
_ZStneIPSsEbRKSt13move_iteratorIT_ES5_ W 0000000000000050
_ZStneIPSt4pairISsSsEEbRKSt13move_iteratorIT_ES7_ W 0000000000000050
_ZStneISt4pairISsSsERKS1_PS2_EbRKSt15_Deque_iteratorIT_T0_T1_ESB_ W 0000000000000050
_ZStneISt4pairISsSsERS1_PS1_EbRKSt15_Deque_iteratorIT_T0_T1_ESA_ W 0000000000000050
_ZStplIcSt11char_traitsIcESaIcEENSt7__cxx1112basic_stringIT_T0_T1_EEPKS5_RKS8_ W 00000000000000a1
_ZStplIcSt11char_traitsIcESaIcEENSt7__cxx1112basic_stringIT_T0_T1_EERKS8_SA_ W 000000000000005b
_ZStplIcSt11char_traitsIcESaIcEENSt7__cxx1112basic_stringIT_T0_T1_EES5_RKS8_ W 0000000000000080
_ZStplIcSt11char_traitsIcESaIcEESbIT_T0_T1_EOS6_RKS6_ W 0000000000000092
_ZStplIcSt11char_traitsIcESaIcEESbIT_T0_T1_ERKS6_PKS3_ W 00000000000000bd
_ZTINSt3_V214error_categoryE V 0000000000000010
_ZTINSt8ios_base7failureB5cxx11E V 0000000000000018
_ZTSNSt8ios_base7failureB5cxx11E V 000000000000001d
_ZTVNSt3_V214error_categoryE V 0000000000000050
_ZTVNSt8ios_base7failureB5cxx11E V 0000000000000028
_ZZN9__gnu_cxx6__stoaIlicJiEEET0_PFT_PKT1_PPS3_DpT2_EPKcS5_PmS9_EN10_Range_chk6_S_chkElSt17integral_constantIbLb1EE W 0000000000000063
_ZZN9__gnu_cxx6__stoaIlicJiEEET0_PFT_PKT1_PPS3_DpT2_EPKcS5_PmS9_EN11_Save_errnoC1Ev W 0000000000000039
_ZZN9__gnu_cxx6__stoaIlicJiEEET0_PFT_PKT1_PPS3_DpT2_EPKcS5_PmS9_EN11_Save_errnoC2Ev W 0000000000000039
_ZZN9__gnu_cxx6__stoaIlicJiEEET0_PFT_PKT1_PPS3_DpT2_EPKcS5_PmS9_EN11_Save_errnoD1Ev W 000000000000004e
_ZZN9__gnu_cxx6__stoaIlicJiEEET0_PFT_PKT1_PPS3_DpT2_EPKcS5_PmS9_EN11_Save_errnoD2Ev W 000000000000004e
