 0x000000000000000e (SONAME)             Library soname: [libActor.so]
__bss_start B
_edata D
_end B
_fini T
__gcov_error_file B 0000000000000008
__gcov_master D 0000000000000010
__gcov_sort_n_vals T 00000000000000b7
__gcov_var B 0000000000001028
_init T
_ZdlPvm T 0000000000000005
_ZdlPvS_ W 0000000000000021
_ZN5Actor12outputHelperERSt14priority_queueIP9ActorNodeSt6vectorIS2_SaIS2_EE13ActorNodeCompERS3_IS3_ISsSaISsEESaISA_EE T 0000000000000308
_ZN5Actor13linkpredictorERSt6vectorISsSaISsEERS0_IS2_SaIS2_EES6_ T 000000000000166c
_ZN5Actor18weightedPathfinderERSsS0_ T 000000000000079f
_ZN5Actor20unweightedPathfinderERSsS0_ T 000000000000075e
_ZN5Actor5clearEv T 000000000000020e
_ZN5Actor8levelBFSERSsRSt13unordered_mapISsP9ActorNodeSt4hashISsESt8equal_toISsESaISt4pairIKSsS3_EEESD_ T 000000000000074d
_ZN5Actor8updatePQERP9ActorNodeRSt14priority_queueIS1_St6vectorIS1_SaIS1_EE13ActorNodeCompE T 00000000000001aa
_ZN5ActorD1Ev T 0000000000000333
_ZN5ActorD2Ev T 0000000000000333
_ZN9ActorNodeD1Ev W 0000000000000083
_ZN9ActorNodeD2Ev W 0000000000000083
_ZN9__gnu_cxx13new_allocatorI4EdgeE10deallocateEPS1_m W 0000000000000047
_ZN9__gnu_cxx13new_allocatorI4EdgeED1Ev W 000000000000001d
_ZN9__gnu_cxx13new_allocatorI4EdgeED2Ev W 000000000000001d
_ZN9__gnu_cxx13new_allocatorINSt8__detail10_Hash_nodeISt4pairIKP9ActorNodeiELb0EEEE10deallocateEPS8_m W 0000000000000047
_ZN9__gnu_cxx13new_allocatorINSt8__detail10_Hash_nodeISt4pairIKP9ActorNodeiELb0EEEED1Ev W 000000000000001d
_ZN9__gnu_cxx13new_allocatorINSt8__detail10_Hash_nodeISt4pairIKP9ActorNodeiELb0EEEED2Ev W 000000000000001d
_ZN9__gnu_cxx13new_allocatorINSt8__detail10_Hash_nodeISt4pairIKP9ActorNodeS5_ELb0EEEE10deallocateEPS8_m W 0000000000000047
_ZN9__gnu_cxx13new_allocatorINSt8__detail10_Hash_nodeISt4pairIKP9ActorNodeS5_ELb0EEEED1Ev W 000000000000001d
_ZN9__gnu_cxx13new_allocatorINSt8__detail10_Hash_nodeISt4pairIKP9ActorNodeS5_ELb0EEEED2Ev W 000000000000001d
_ZN9__gnu_cxx13new_allocatorINSt8__detail10_Hash_nodeISt4pairIKSsP9ActorNodeELb1EEEE10deallocateEPS8_m W 0000000000000047
_ZN9__gnu_cxx13new_allocatorINSt8__detail10_Hash_nodeISt4pairIKSsP9ActorNodeELb1EEEE8allocateEmPKv W 0000000000000090
_ZN9__gnu_cxx13new_allocatorINSt8__detail10_Hash_nodeISt4pairIKSsP9ActorNodeELb1EEEEC1Ev W 000000000000001d
_ZN9__gnu_cxx13new_allocatorINSt8__detail10_Hash_nodeISt4pairIKSsP9ActorNodeELb1EEEEC2Ev W 000000000000001d
_ZN9__gnu_cxx13new_allocatorINSt8__detail10_Hash_nodeISt4pairIKSsP9ActorNodeELb1EEEED1Ev W 000000000000001d
_ZN9__gnu_cxx13new_allocatorINSt8__detail10_Hash_nodeISt4pairIKSsP9ActorNodeELb1EEEED2Ev W 000000000000001d
_ZN9__gnu_cxx13new_allocatorINSt8__detail10_Hash_nodeISt4pairIKSsP9MovieNodeELb1EEEE10deallocateEPS8_m W 0000000000000047
_ZN9__gnu_cxx13new_allocatorINSt8__detail10_Hash_nodeISt4pairIKSsP9MovieNodeELb1EEEED1Ev W 000000000000001d
_ZN9__gnu_cxx13new_allocatorINSt8__detail10_Hash_nodeISt4pairIKSsP9MovieNodeELb1EEEED2Ev W 000000000000001d
_ZN9__gnu_cxx13new_allocatorIP9ActorNodeE10deallocateEPS2_m W 0000000000000047
_ZN9__gnu_cxx13new_allocatorIP9ActorNodeE7destroyIS2_EEvPT_ W 0000000000000021
_ZN9__gnu_cxx13new_allocatorIP9ActorNodeE8allocateEmPKv W 0000000000000090
_ZN9__gnu_cxx13new_allocatorIP9ActorNodeE9constructIS2_JRKS2_EEEvPT_DpOT0_ W 0000000000000092
_ZN9__gnu_cxx13new_allocatorIP9ActorNodeEC1Ev W 000000000000001d
_ZN9__gnu_cxx13new_allocatorIP9ActorNodeEC2Ev W 000000000000001d
_ZN9__gnu_cxx13new_allocatorIP9ActorNodeED1Ev W 000000000000001d
_ZN9__gnu_cxx13new_allocatorIP9ActorNodeED2Ev W 000000000000001d
_ZN9__gnu_cxx13new_allocatorIPNSt8__detail15_Hash_node_baseEE10deallocateEPS3_m W 0000000000000047
_ZN9__gnu_cxx13new_allocatorIPNSt8__detail15_Hash_node_baseEE8allocateEmPKv W 0000000000000090
_ZN9__gnu_cxx13new_allocatorIPNSt8__detail15_Hash_node_baseEEC1Ev W 000000000000001d
_ZN9__gnu_cxx13new_allocatorIPNSt8__detail15_Hash_node_baseEEC2Ev W 000000000000001d
_ZN9__gnu_cxx13new_allocatorIPNSt8__detail15_Hash_node_baseEED1Ev W 000000000000001d
_ZN9__gnu_cxx13new_allocatorIPNSt8__detail15_Hash_node_baseEED2Ev W 000000000000001d
_ZN9__gnu_cxx13new_allocatorIPP9ActorNodeE10deallocateEPS3_m W 0000000000000047
_ZN9__gnu_cxx13new_allocatorIPP9ActorNodeE8allocateEmPKv W 0000000000000090
_ZN9__gnu_cxx13new_allocatorIPP9ActorNodeEC1Ev W 000000000000001d
_ZN9__gnu_cxx13new_allocatorIPP9ActorNodeEC2Ev W 000000000000001d
_ZN9__gnu_cxx13new_allocatorIPP9ActorNodeED1Ev W 000000000000001d
_ZN9__gnu_cxx13new_allocatorIPP9ActorNodeED2Ev W 000000000000001d
_ZN9__gnu_cxx13new_allocatorIPSsE10deallocateEPS1_m W 0000000000000047
_ZN9__gnu_cxx13new_allocatorIPSsE8allocateEmPKv W 0000000000000090
_ZN9__gnu_cxx13new_allocatorIPSsEC1Ev W 000000000000001d
_ZN9__gnu_cxx13new_allocatorIPSsEC2Ev W 000000000000001d
_ZN9__gnu_cxx13new_allocatorIPSsED1Ev W 000000000000001d
_ZN9__gnu_cxx13new_allocatorIPSsED2Ev W 000000000000001d
_ZN9__gnu_cxx13new_allocatorIPSt4pairISsSsEE10deallocateEPS3_m W 0000000000000047
_ZN9__gnu_cxx13new_allocatorIPSt4pairISsSsEE8allocateEmPKv W 0000000000000090
_ZN9__gnu_cxx13new_allocatorIPSt4pairISsSsEEC1Ev W 000000000000001d
_ZN9__gnu_cxx13new_allocatorIPSt4pairISsSsEEC2Ev W 000000000000001d
_ZN9__gnu_cxx13new_allocatorIPSt4pairISsSsEED1Ev W 000000000000001d
_ZN9__gnu_cxx13new_allocatorIPSt4pairISsSsEED2Ev W 000000000000001d
_ZN9__gnu_cxx13new_allocatorISsE10deallocateEPSsm W 0000000000000047
_ZN9__gnu_cxx13new_allocatorISsE7destroyISsEEvPT_ W 0000000000000043
_ZN9__gnu_cxx13new_allocatorISsE8allocateEmPKv W 0000000000000090
_ZN9__gnu_cxx13new_allocatorISsE9constructISsJRKSsEEEvPT_DpOT0_ W 00000000000000f2
_ZN9__gnu_cxx13new_allocatorISsEC1ERKS1_ W 0000000000000021
_ZN9__gnu_cxx13new_allocatorISsEC1Ev W 000000000000001d
_ZN9__gnu_cxx13new_allocatorISsEC2ERKS1_ W 0000000000000021
_ZN9__gnu_cxx13new_allocatorISsEC2Ev W 000000000000001d
_ZN9__gnu_cxx13new_allocatorISsED1Ev W 000000000000001d
_ZN9__gnu_cxx13new_allocatorISsED2Ev W 000000000000001d
_ZN9__gnu_cxx13new_allocatorISt4pairIKP9ActorNodeiEE7destroyIS5_EEvPT_ W 0000000000000021
_ZN9__gnu_cxx13new_allocatorISt4pairIKP9ActorNodeiEEC1Ev W 000000000000001d
_ZN9__gnu_cxx13new_allocatorISt4pairIKP9ActorNodeiEEC2Ev W 000000000000001d
_ZN9__gnu_cxx13new_allocatorISt4pairIKP9ActorNodeiEED1Ev W 000000000000001d
_ZN9__gnu_cxx13new_allocatorISt4pairIKP9ActorNodeiEED2Ev W 000000000000001d
_ZN9__gnu_cxx13new_allocatorISt4pairIKP9ActorNodeS3_EE7destroyIS5_EEvPT_ W 0000000000000021
_ZN9__gnu_cxx13new_allocatorISt4pairIKP9ActorNodeS3_EEC1Ev W 000000000000001d
_ZN9__gnu_cxx13new_allocatorISt4pairIKP9ActorNodeS3_EEC2Ev W 000000000000001d
_ZN9__gnu_cxx13new_allocatorISt4pairIKP9ActorNodeS3_EED1Ev W 000000000000001d
_ZN9__gnu_cxx13new_allocatorISt4pairIKP9ActorNodeS3_EED2Ev W 000000000000001d
_ZN9__gnu_cxx13new_allocatorISt4pairIKSsP9ActorNodeEE7destroyIS5_EEvPT_ W 0000000000000043
_ZN9__gnu_cxx13new_allocatorISt4pairIKSsP9ActorNodeEE9constructIS5_JS1_ISsS4_EEEEvPT_DpOT0_ W 00000000000000a9
_ZN9__gnu_cxx13new_allocatorISt4pairIKSsP9ActorNodeEEC1Ev W 000000000000001d
_ZN9__gnu_cxx13new_allocatorISt4pairIKSsP9ActorNodeEEC2Ev W 000000000000001d
_ZN9__gnu_cxx13new_allocatorISt4pairIKSsP9ActorNodeEED1Ev W 000000000000001d
_ZN9__gnu_cxx13new_allocatorISt4pairIKSsP9ActorNodeEED2Ev W 000000000000001d
_ZN9__gnu_cxx13new_allocatorISt4pairIKSsP9MovieNodeEE7destroyIS5_EEvPT_ W 0000000000000043
_ZN9__gnu_cxx13new_allocatorISt4pairIKSsP9MovieNodeEEC1Ev W 000000000000001d
_ZN9__gnu_cxx13new_allocatorISt4pairIKSsP9MovieNodeEEC2Ev W 000000000000001d
_ZN9__gnu_cxx13new_allocatorISt4pairIKSsP9MovieNodeEED1Ev W 000000000000001d
_ZN9__gnu_cxx13new_allocatorISt4pairIKSsP9MovieNodeEED2Ev W 000000000000001d
_ZN9__gnu_cxx13new_allocatorISt4pairISsSsEE10deallocateEPS2_m W 0000000000000047
_ZN9__gnu_cxx13new_allocatorISt4pairISsSsEE7destroyIS2_EEvPT_ W 0000000000000043
_ZN9__gnu_cxx13new_allocatorISt4pairISsSsEE8allocateEmPKv W 0000000000000090
_ZN9__gnu_cxx13new_allocatorISt4pairISsSsEE9constructIS2_JS2_EEEvPT_DpOT0_ W 00000000000000a9
_ZN9__gnu_cxx13new_allocatorISt4pairISsSsEED1Ev W 000000000000001d
_ZN9__gnu_cxx13new_allocatorISt4pairISsSsEED2Ev W 000000000000001d
_ZN9__gnu_cxx13new_allocatorISt6vectorISsSaISsEEE10deallocateEPS3_m W 0000000000000047
_ZN9__gnu_cxx13new_allocatorISt6vectorISsSaISsEEE7destroyIS3_EEvPT_ W 0000000000000043
_ZN9__gnu_cxx13new_allocatorISt6vectorISsSaISsEEE8allocateEmPKv W 0000000000000099
_ZN9__gnu_cxx13new_allocatorISt6vectorISsSaISsEEE9constructIS3_JRKS3_EEEvPT_DpOT0_ W 00000000000000f2
_ZN9__gnu_cxx14__alloc_traitsISaISsEE17_S_select_on_copyERKS1_ W 000000000000004d
_ZN9__gnu_cxx16__aligned_bufferISt4pairIKP9ActorNodeiEE6_M_ptrEv W 0000000000000044
_ZN9__gnu_cxx16__aligned_bufferISt4pairIKP9ActorNodeiEE7_M_addrEv W 0000000000000020
_ZN9__gnu_cxx16__aligned_bufferISt4pairIKP9ActorNodeS3_EE6_M_ptrEv W 0000000000000044
_ZN9__gnu_cxx16__aligned_bufferISt4pairIKP9ActorNodeS3_EE7_M_addrEv W 0000000000000020
_ZN9__gnu_cxx16__aligned_bufferISt4pairIKSsP9ActorNodeEE6_M_ptrEv W 0000000000000044
_ZN9__gnu_cxx16__aligned_bufferISt4pairIKSsP9ActorNodeEE7_M_addrEv W 0000000000000020
_ZN9__gnu_cxx16__aligned_bufferISt4pairIKSsP9MovieNodeEE6_M_ptrEv W 0000000000000044
_ZN9__gnu_cxx16__aligned_bufferISt4pairIKSsP9MovieNodeEE7_M_addrEv W 0000000000000020
_ZN9__gnu_cxx17__normal_iteratorIP4EdgeSt6vectorIS1_SaIS1_EEEC1ERKS2_ W 000000000000002f
_ZN9__gnu_cxx17__normal_iteratorIP4EdgeSt6vectorIS1_SaIS1_EEEC2ERKS2_ W 000000000000002f
_ZN9__gnu_cxx17__normal_iteratorIP4EdgeSt6vectorIS1_SaIS1_EEEppEv W 0000000000000032
_ZN9__gnu_cxx17__normal_iteratorIPKP9ActorNodeSt6vectorIS2_SaIS2_EEEC1ERKS4_ W 000000000000002f
_ZN9__gnu_cxx17__normal_iteratorIPKP9ActorNodeSt6vectorIS2_SaIS2_EEEC2ERKS4_ W 000000000000002f
_ZN9__gnu_cxx17__normal_iteratorIPKSsSt6vectorISsSaISsEEEC1ERKS2_ W 000000000000002f
_ZN9__gnu_cxx17__normal_iteratorIPKSsSt6vectorISsSaISsEEEC2ERKS2_ W 000000000000002f
_ZN9__gnu_cxx17__normal_iteratorIPKSsSt6vectorISsSaISsEEEppEv W 0000000000000032
_ZN9__gnu_cxx17__normal_iteratorIPP9ActorNodeSt6vectorIS2_SaIS2_EEEC1ERKS3_ W 000000000000002f
_ZN9__gnu_cxx17__normal_iteratorIPP9ActorNodeSt6vectorIS2_SaIS2_EEEC2ERKS3_ W 000000000000002f
_ZN9__gnu_cxx17__normal_iteratorIPP9ActorNodeSt6vectorIS2_SaIS2_EEEmmEv W 0000000000000032
_ZN9__gnu_cxx17__normal_iteratorIPSsSt6vectorISsSaISsEEEC1ERKS1_ W 000000000000002f
_ZN9__gnu_cxx17__normal_iteratorIPSsSt6vectorISsSaISsEEEC2ERKS1_ W 000000000000002f
_ZN9__gnu_cxx17__normal_iteratorIPSsSt6vectorISsSaISsEEEppEv W 0000000000000032
_ZN9__gnu_cxx17__normal_iteratorIPSt6vectorISsSaISsEES1_IS3_SaIS3_EEEC1ERKS4_ W 000000000000002f
_ZN9__gnu_cxx17__normal_iteratorIPSt6vectorISsSaISsEES1_IS3_SaIS3_EEEC2ERKS4_ W 000000000000002f
_ZN9__gnu_cxx5__ops14_Iter_comp_valI12ActorDisCompEC1EONS0_15_Iter_comp_iterIS2_EE W 0000000000000043
_ZN9__gnu_cxx5__ops14_Iter_comp_valI12ActorDisCompEC1ES2_ W 000000000000003c
_ZN9__gnu_cxx5__ops14_Iter_comp_valI12ActorDisCompEC2EONS0_15_Iter_comp_iterIS2_EE W 0000000000000043
_ZN9__gnu_cxx5__ops14_Iter_comp_valI12ActorDisCompEC2ES2_ W 000000000000003c
_ZN9__gnu_cxx5__ops14_Iter_comp_valI12ActorDisCompEclINS_17__normal_iteratorIPP9ActorNodeSt6vectorIS7_SaIS7_EEEES7_EEbT_RT0_ W 000000000000007b
_ZN9__gnu_cxx5__ops14_Iter_comp_valI13ActorNodeCompEC1EONS0_15_Iter_comp_iterIS2_EE W 0000000000000043
_ZN9__gnu_cxx5__ops14_Iter_comp_valI13ActorNodeCompEC1ES2_ W 000000000000003c
_ZN9__gnu_cxx5__ops14_Iter_comp_valI13ActorNodeCompEC2EONS0_15_Iter_comp_iterIS2_EE W 0000000000000043
_ZN9__gnu_cxx5__ops14_Iter_comp_valI13ActorNodeCompEC2ES2_ W 000000000000003c
_ZN9__gnu_cxx5__ops14_Iter_comp_valI13ActorNodeCompEclINS_17__normal_iteratorIPP9ActorNodeSt6vectorIS7_SaIS7_EEEES7_EEbT_RT0_ W 000000000000007b
_ZN9__gnu_cxx5__ops15_Iter_comp_iterI12ActorDisCompEclINS_17__normal_iteratorIPP9ActorNodeSt6vectorIS7_SaIS7_EEEESC_EEbT_T0_ W 000000000000009c
_ZN9__gnu_cxx5__ops15_Iter_comp_iterI13ActorNodeCompEclINS_17__normal_iteratorIPP9ActorNodeSt6vectorIS7_SaIS7_EEEESC_EEbT_T0_ W 000000000000009c
_ZN9__gnu_cxxeqIPKP9ActorNodeSt6vectorIS2_SaIS2_EEEEbRKNS_17__normal_iteratorIT_T0_EESD_ W 0000000000000077
_ZN9__gnu_cxxmiIPP9ActorNodeSt6vectorIS2_SaIS2_EEEENS_17__normal_iteratorIT_T0_E15difference_typeERKSA_SD_ W 0000000000000082
_ZN9__gnu_cxxmiIPSsSt6vectorISsSaISsEEEENS_17__normal_iteratorIT_T0_E15difference_typeERKS8_SB_ W 0000000000000082
_ZN9__gnu_cxxmiIPSt6vectorISsSaISsEES1_IS3_SaIS3_EEEENS_17__normal_iteratorIT_T0_E15difference_typeERKSA_SD_ W 0000000000000093
_ZN9__gnu_cxxneIP4EdgeSt6vectorIS1_SaIS1_EEEEbRKNS_17__normal_iteratorIT_T0_EESB_ W 0000000000000077
_ZN9__gnu_cxxneIPKSsSt6vectorISsSaISsEEEEbRKNS_17__normal_iteratorIT_T0_EESB_ W 0000000000000077
_ZN9__gnu_cxxneIPSsSt6vectorISsSaISsEEEEbRKNS_17__normal_iteratorIT_T0_EESA_ W 0000000000000077
_ZN9MovieNodeD1Ev W 0000000000000083
_ZN9MovieNodeD2Ev W 0000000000000083
_ZNK12ActorDisCompclERP9ActorNodeS2_ W 000000000000009b
_ZNK13ActorNodeCompclERP9ActorNodeS2_ W 000000000000009b
_ZNK9__gnu_cxx13new_allocatorINSt8__detail10_Hash_nodeISt4pairIKSsP9ActorNodeELb1EEEE8max_sizeEv W 0000000000000026
_ZNK9__gnu_cxx13new_allocatorIP9ActorNodeE8max_sizeEv W 0000000000000026
_ZNK9__gnu_cxx13new_allocatorIPNSt8__detail15_Hash_node_baseEE8max_sizeEv W 0000000000000026
_ZNK9__gnu_cxx13new_allocatorIPP9ActorNodeE8max_sizeEv W 0000000000000026
_ZNK9__gnu_cxx13new_allocatorIPSsE8max_sizeEv W 0000000000000026
_ZNK9__gnu_cxx13new_allocatorIPSt4pairISsSsEE8max_sizeEv W 0000000000000026
_ZNK9__gnu_cxx13new_allocatorISsE8max_sizeEv W 0000000000000026
_ZNK9__gnu_cxx13new_allocatorISt4pairISsSsEE8max_sizeEv W 0000000000000026
_ZNK9__gnu_cxx13new_allocatorISt6vectorISsSaISsEEE8max_sizeEv W 0000000000000026
_ZNK9__gnu_cxx17__normal_iteratorIP4EdgeSt6vectorIS1_SaIS1_EEE4baseEv W 0000000000000020
_ZNK9__gnu_cxx17__normal_iteratorIP4EdgeSt6vectorIS1_SaIS1_EEEdeEv W 0000000000000023
_ZNK9__gnu_cxx17__normal_iteratorIPKP9ActorNodeSt6vectorIS2_SaIS2_EEE4baseEv W 0000000000000020
_ZNK9__gnu_cxx17__normal_iteratorIPKP9ActorNodeSt6vectorIS2_SaIS2_EEEdeEv W 0000000000000023
_ZNK9__gnu_cxx17__normal_iteratorIPKSsSt6vectorISsSaISsEEE4baseEv W 0000000000000020
_ZNK9__gnu_cxx17__normal_iteratorIPKSsSt6vectorISsSaISsEEEdeEv W 0000000000000023
_ZNK9__gnu_cxx17__normal_iteratorIPP9ActorNodeSt6vectorIS2_SaIS2_EEE4baseEv W 0000000000000020
_ZNK9__gnu_cxx17__normal_iteratorIPP9ActorNodeSt6vectorIS2_SaIS2_EEEdeEv W 0000000000000023
_ZNK9__gnu_cxx17__normal_iteratorIPP9ActorNodeSt6vectorIS2_SaIS2_EEEmiEl W 0000000000000066
_ZNK9__gnu_cxx17__normal_iteratorIPP9ActorNodeSt6vectorIS2_SaIS2_EEEplEl W 0000000000000063
_ZNK9__gnu_cxx17__normal_iteratorIPSsSt6vectorISsSaISsEEE4baseEv W 0000000000000020
_ZNK9__gnu_cxx17__normal_iteratorIPSsSt6vectorISsSaISsEEEdeEv W 0000000000000023
_ZNK9__gnu_cxx17__normal_iteratorIPSt6vectorISsSaISsEES1_IS3_SaIS3_EEE4baseEv W 0000000000000020
_ZNKSt10_HashtableIP9ActorNodeSt4pairIKS1_iESaIS4_ENSt8__detail10_Select1stESt8equal_toIS1_ESt4hashIS1_ENS6_18_Mod_range_hashingENS6_20_Default_ranged_hashENS6_20_Prime_rehash_policyENS6_17_Hashtable_traitsILb0ELb0ELb1EEEE21_M_uses_single_bucketEPPNS6_15_Hash_node_baseE W 000000000000003a
_ZNKSt10_HashtableIP9ActorNodeSt4pairIKS1_iESaIS4_ENSt8__detail10_Select1stESt8equal_toIS1_ESt4hashIS1_ENS6_18_Mod_range_hashingENS6_20_Default_ranged_hashENS6_20_Prime_rehash_policyENS6_17_Hashtable_traitsILb0ELb0ELb1EEEE8_M_beginEv W 0000000000000024
_ZNKSt10_HashtableIP9ActorNodeSt4pairIKS1_S1_ESaIS4_ENSt8__detail10_Select1stESt8equal_toIS1_ESt4hashIS1_ENS6_18_Mod_range_hashingENS6_20_Default_ranged_hashENS6_20_Prime_rehash_policyENS6_17_Hashtable_traitsILb0ELb0ELb1EEEE21_M_uses_single_bucketEPPNS6_15_Hash_node_baseE W 000000000000003a
_ZNKSt10_HashtableIP9ActorNodeSt4pairIKS1_S1_ESaIS4_ENSt8__detail10_Select1stESt8equal_toIS1_ESt4hashIS1_ENS6_18_Mod_range_hashingENS6_20_Default_ranged_hashENS6_20_Prime_rehash_policyENS6_17_Hashtable_traitsILb0ELb0ELb1EEEE8_M_beginEv W 0000000000000024
_ZNKSt10_HashtableISsSt4pairIKSsP9ActorNodeESaIS4_ENSt8__detail10_Select1stESt8equal_toISsESt4hashISsENS6_18_Mod_range_hashingENS6_20_Default_ranged_hashENS6_20_Prime_rehash_policyENS6_17_Hashtable_traitsILb1ELb0ELb1EEEE12_M_find_nodeEmRS1_m W 0000000000000081
_ZNKSt10_HashtableISsSt4pairIKSsP9ActorNodeESaIS4_ENSt8__detail10_Select1stESt8equal_toISsESt4hashISsENS6_18_Mod_range_hashingENS6_20_Default_ranged_hashENS6_20_Prime_rehash_policyENS6_17_Hashtable_traitsILb1ELb0ELb1EEEE15_M_bucket_indexEPNS6_10_Hash_nodeIS4_Lb1EEE W 0000000000000057
_ZNKSt10_HashtableISsSt4pairIKSsP9ActorNodeESaIS4_ENSt8__detail10_Select1stESt8equal_toISsESt4hashISsENS6_18_Mod_range_hashingENS6_20_Default_ranged_hashENS6_20_Prime_rehash_policyENS6_17_Hashtable_traitsILb1ELb0ELb1EEEE15_M_bucket_indexERS1_m W 000000000000005c
_ZNKSt10_HashtableISsSt4pairIKSsP9ActorNodeESaIS4_ENSt8__detail10_Select1stESt8equal_toISsESt4hashISsENS6_18_Mod_range_hashingENS6_20_Default_ranged_hashENS6_20_Prime_rehash_policyENS6_17_Hashtable_traitsILb1ELb0ELb1EEEE19_M_find_before_nodeEmRS1_m W 000000000000018f
_ZNKSt10_HashtableISsSt4pairIKSsP9ActorNodeESaIS4_ENSt8__detail10_Select1stESt8equal_toISsESt4hashISsENS6_18_Mod_range_hashingENS6_20_Default_ranged_hashENS6_20_Prime_rehash_policyENS6_17_Hashtable_traitsILb1ELb0ELb1EEEE21_M_uses_single_bucketEPPNS6_15_Hash_node_baseE W 000000000000003a
_ZNKSt10_HashtableISsSt4pairIKSsP9ActorNodeESaIS4_ENSt8__detail10_Select1stESt8equal_toISsESt4hashISsENS6_18_Mod_range_hashingENS6_20_Default_ranged_hashENS6_20_Prime_rehash_policyENS6_17_Hashtable_traitsILb1ELb0ELb1EEEE8_M_beginEv W 0000000000000024
_ZNKSt10_HashtableISsSt4pairIKSsP9MovieNodeESaIS4_ENSt8__detail10_Select1stESt8equal_toISsESt4hashISsENS6_18_Mod_range_hashingENS6_20_Default_ranged_hashENS6_20_Prime_rehash_policyENS6_17_Hashtable_traitsILb1ELb0ELb1EEEE21_M_uses_single_bucketEPPNS6_15_Hash_node_baseE W 000000000000003a
_ZNKSt10_HashtableISsSt4pairIKSsP9MovieNodeESaIS4_ENSt8__detail10_Select1stESt8equal_toISsESt4hashISsENS6_18_Mod_range_hashingENS6_20_Default_ranged_hashENS6_20_Prime_rehash_policyENS6_17_Hashtable_traitsILb1ELb0ELb1EEEE8_M_beginEv W 0000000000000024
_ZNKSt11_Deque_baseIP9ActorNodeSaIS1_EE19_M_get_Tp_allocatorEv W 0000000000000020
_ZNKSt11_Deque_baseIP9ActorNodeSaIS1_EE20_M_get_map_allocatorEv W 000000000000006a
_ZNKSt11_Deque_baseISsSaISsEE19_M_get_Tp_allocatorEv W 0000000000000020
_ZNKSt11_Deque_baseISsSaISsEE20_M_get_map_allocatorEv W 000000000000006a
_ZNKSt11_Deque_baseISt4pairISsSsESaIS1_EE19_M_get_Tp_allocatorEv W 0000000000000020
_ZNKSt11_Deque_baseISt4pairISsSsESaIS1_EE20_M_get_map_allocatorEv W 000000000000006a
_ZNKSt12_Vector_baseIP9ActorNodeSaIS1_EE19_M_get_Tp_allocatorEv W 0000000000000020
_ZNKSt12_Vector_baseISsSaISsEE19_M_get_Tp_allocatorEv W 0000000000000020
_ZNKSt12_Vector_baseISt6vectorISsSaISsEESaIS2_EE19_M_get_Tp_allocatorEv W 0000000000000020
_ZNKSt13move_iteratorIPP9ActorNodeE4baseEv W 0000000000000023
_ZNKSt13move_iteratorIPSsE4baseEv W 0000000000000023
_ZNKSt13move_iteratorIPSsEdeEv W 0000000000000023
_ZNKSt13move_iteratorIPSt6vectorISsSaISsEEE4baseEv W 0000000000000023
_ZNKSt13move_iteratorIPSt6vectorISsSaISsEEEdeEv W 0000000000000023
_ZNKSt14priority_queueIP9ActorNodeSt6vectorIS1_SaIS1_EE12ActorDisCompE3topEv W 0000000000000044
_ZNKSt14priority_queueIP9ActorNodeSt6vectorIS1_SaIS1_EE12ActorDisCompE5emptyEv W 0000000000000042
_ZNKSt14priority_queueIP9ActorNodeSt6vectorIS1_SaIS1_EE13ActorNodeCompE3topEv W 0000000000000044
_ZNKSt14priority_queueIP9ActorNodeSt6vectorIS1_SaIS1_EE13ActorNodeCompE4sizeEv W 0000000000000044
_ZNKSt15_Deque_iteratorIP9ActorNodeRS1_PS1_EdeEv W 0000000000000023
_ZNKSt15_Deque_iteratorISsRSsPSsEdeEv W 0000000000000023
_ZNKSt4hashISsEclERKSs W 0000000000000094
_ZNKSt5dequeIP9ActorNodeSaIS1_EE5emptyEv W 0000000000000051
_ZNKSt5dequeISsSaISsEE5emptyEv W 0000000000000051
_ZNKSt5dequeISt4pairISsSsESaIS1_EE5emptyEv W 0000000000000051
_ZNKSt5queueIP9ActorNodeSt5dequeIS1_SaIS1_EEE5emptyEv W 0000000000000042
_ZNKSt5stackISsSt5dequeISsSaISsEEE5emptyEv W 0000000000000042
_ZNKSt5stackISt4pairISsSsESt5dequeIS1_SaIS1_EEE5emptyEv W 0000000000000042
_ZNKSt6vectorIP9ActorNodeSaIS1_EE12_M_check_lenEmPKc W 00000000000001ae
_ZNKSt6vectorIP9ActorNodeSaIS1_EE3endEv W 0000000000000055
_ZNKSt6vectorIP9ActorNodeSaIS1_EE4sizeEv W 000000000000003e
_ZNKSt6vectorIP9ActorNodeSaIS1_EE5beginEv W 0000000000000054
_ZNKSt6vectorIP9ActorNodeSaIS1_EE5emptyEv W 000000000000008d
_ZNKSt6vectorIP9ActorNodeSaIS1_EE5frontEv W 0000000000000066
_ZNKSt6vectorIP9ActorNodeSaIS1_EE8max_sizeEv W 0000000000000061
_ZNKSt6vectorIS_ISsSaISsEESaIS1_EE12_M_check_lenEmPKc W 00000000000001ae
_ZNKSt6vectorIS_ISsSaISsEESaIS1_EE4sizeEv W 000000000000004f
_ZNKSt6vectorIS_ISsSaISsEESaIS1_EE8max_sizeEv W 0000000000000061
_ZNKSt6vectorISsSaISsEE12_M_check_lenEmPKc W 00000000000001ae
_ZNKSt6vectorISsSaISsEE3endEv W 0000000000000055
_ZNKSt6vectorISsSaISsEE4sizeEv W 000000000000003e
_ZNKSt6vectorISsSaISsEE5beginEv W 0000000000000054
_ZNKSt6vectorISsSaISsEE8max_sizeEv W 0000000000000061
_ZNKSt8__detail10_Hash_nodeISt4pairIKP9ActorNodeiELb0EE7_M_nextEv W 0000000000000023
_ZNKSt8__detail10_Hash_nodeISt4pairIKP9ActorNodeS3_ELb0EE7_M_nextEv W 0000000000000023
_ZNKSt8__detail10_Hash_nodeISt4pairIKSsP9ActorNodeELb1EE7_M_nextEv W 0000000000000023
_ZNKSt8__detail10_Hash_nodeISt4pairIKSsP9MovieNodeELb1EE7_M_nextEv W 0000000000000023
_ZNKSt8__detail10_Select1stclIRSt4pairIKSsP9ActorNodeEEEDTcl3getILi0EEcl7forwardIT_Efp_EEEOS8_ W 0000000000000065
_ZNKSt8__detail14_Node_iteratorISt4pairIKSsP9ActorNodeELb0ELb1EEdeEv W 0000000000000047
_ZNKSt8__detail14_Node_iteratorISt4pairIKSsP9ActorNodeELb0ELb1EEptEv W 0000000000000047
_ZNKSt8__detail14_Node_iteratorISt4pairIKSsP9MovieNodeELb0ELb1EEptEv W 0000000000000047
_ZNKSt8__detail15_Hash_code_baseISsSt4pairIKSsP9ActorNodeENS_10_Select1stESt4hashISsENS_18_Mod_range_hashingENS_20_Default_ranged_hashELb1EE10_M_extractEv W 0000000000000044
_ZNKSt8__detail15_Hash_code_baseISsSt4pairIKSsP9ActorNodeENS_10_Select1stESt4hashISsENS_18_Mod_range_hashingENS_20_Default_ranged_hashELb1EE12_M_hash_codeERS2_ W 000000000000006c
_ZNKSt8__detail15_Hash_code_baseISsSt4pairIKSsP9ActorNodeENS_10_Select1stESt4hashISsENS_18_Mod_range_hashingENS_20_Default_ranged_hashELb1EE13_M_store_codeEPNS_10_Hash_nodeIS5_Lb1EEEm W 0000000000000031
_ZNKSt8__detail15_Hash_code_baseISsSt4pairIKSsP9ActorNodeENS_10_Select1stESt4hashISsENS_18_Mod_range_hashingENS_20_Default_ranged_hashELb1EE15_M_bucket_indexEPKNS_10_Hash_nodeIS5_Lb1EEEm W 0000000000000078
_ZNKSt8__detail15_Hash_code_baseISsSt4pairIKSsP9ActorNodeENS_10_Select1stESt4hashISsENS_18_Mod_range_hashingENS_20_Default_ranged_hashELb1EE15_M_bucket_indexERS2_mm W 0000000000000078
_ZNKSt8__detail15_Hash_code_baseISsSt4pairIKSsP9ActorNodeENS_10_Select1stESt4hashISsENS_18_Mod_range_hashingENS_20_Default_ranged_hashELb1EE5_M_h1Ev W 0000000000000044
_ZNKSt8__detail15_Hash_code_baseISsSt4pairIKSsP9ActorNodeENS_10_Select1stESt4hashISsENS_18_Mod_range_hashingENS_20_Default_ranged_hashELb1EE5_M_h2Ev W 0000000000000044
_ZNKSt8__detail15_Hashtable_baseISsSt4pairIKSsP9ActorNodeENS_10_Select1stESt8equal_toISsESt4hashISsENS_18_Mod_range_hashingENS_20_Default_ranged_hashENS_17_Hashtable_traitsILb1ELb0ELb1EEEE5_M_eqEv W 0000000000000044
_ZNKSt8__detail15_Hashtable_baseISsSt4pairIKSsP9ActorNodeENS_10_Select1stESt8equal_toISsESt4hashISsENS_18_Mod_range_hashingENS_20_Default_ranged_hashENS_17_Hashtable_traitsILb1ELb0ELb1EEEE9_M_equalsERS2_mPNS_10_Hash_nodeIS5_Lb1EEE W 00000000000000a7
_ZNKSt8__detail18_Mod_range_hashingclEmm W 0000000000000034
_ZNKSt8__detail20_Prime_rehash_policy8_M_stateEv W 0000000000000024
_ZNKSt8equal_toISsEclERKSsS2_ W 0000000000000051
_ZNSaI4EdgeED1Ev W 000000000000003f
_ZNSaI4EdgeED2Ev W 000000000000003f
_ZNSaINSt8__detail10_Hash_nodeISt4pairIKP9ActorNodeiELb0EEEED1Ev W 000000000000003f
_ZNSaINSt8__detail10_Hash_nodeISt4pairIKP9ActorNodeiELb0EEEED2Ev W 000000000000003f
_ZNSaINSt8__detail10_Hash_nodeISt4pairIKP9ActorNodeS3_ELb0EEEED1Ev W 000000000000003f
_ZNSaINSt8__detail10_Hash_nodeISt4pairIKP9ActorNodeS3_ELb0EEEED2Ev W 000000000000003f
_ZNSaINSt8__detail10_Hash_nodeISt4pairIKSsP9ActorNodeELb1EEEEC1Ev W 000000000000003f
_ZNSaINSt8__detail10_Hash_nodeISt4pairIKSsP9ActorNodeELb1EEEEC2Ev W 000000000000003f
_ZNSaINSt8__detail10_Hash_nodeISt4pairIKSsP9ActorNodeELb1EEEED1Ev W 000000000000003f
_ZNSaINSt8__detail10_Hash_nodeISt4pairIKSsP9ActorNodeELb1EEEED2Ev W 000000000000003f
_ZNSaINSt8__detail10_Hash_nodeISt4pairIKSsP9MovieNodeELb1EEEED1Ev W 000000000000003f
_ZNSaINSt8__detail10_Hash_nodeISt4pairIKSsP9MovieNodeELb1EEEED2Ev W 000000000000003f
_ZNSaIP9ActorNodeEC1Ev W 000000000000003f
_ZNSaIP9ActorNodeEC2Ev W 000000000000003f
_ZNSaIP9ActorNodeED1Ev W 000000000000003f
_ZNSaIP9ActorNodeED2Ev W 000000000000003f
_ZNSaIPNSt8__detail15_Hash_node_baseEEC1INS_10_Hash_nodeISt4pairIKP9ActorNodeiELb0EEEEERKSaIT_E W 0000000000000043
_ZNSaIPNSt8__detail15_Hash_node_baseEEC1INS_10_Hash_nodeISt4pairIKP9ActorNodeS7_ELb0EEEEERKSaIT_E W 0000000000000043
_ZNSaIPNSt8__detail15_Hash_node_baseEEC1INS_10_Hash_nodeISt4pairIKSsP9ActorNodeELb1EEEEERKSaIT_E W 0000000000000043
_ZNSaIPNSt8__detail15_Hash_node_baseEEC1INS_10_Hash_nodeISt4pairIKSsP9MovieNodeELb1EEEEERKSaIT_E W 0000000000000043
_ZNSaIPNSt8__detail15_Hash_node_baseEEC2INS_10_Hash_nodeISt4pairIKP9ActorNodeiELb0EEEEERKSaIT_E W 0000000000000043
_ZNSaIPNSt8__detail15_Hash_node_baseEEC2INS_10_Hash_nodeISt4pairIKP9ActorNodeS7_ELb0EEEEERKSaIT_E W 0000000000000043
_ZNSaIPNSt8__detail15_Hash_node_baseEEC2INS_10_Hash_nodeISt4pairIKSsP9ActorNodeELb1EEEEERKSaIT_E W 0000000000000043
_ZNSaIPNSt8__detail15_Hash_node_baseEEC2INS_10_Hash_nodeISt4pairIKSsP9MovieNodeELb1EEEEERKSaIT_E W 0000000000000043
_ZNSaIPNSt8__detail15_Hash_node_baseEED1Ev W 000000000000003f
_ZNSaIPNSt8__detail15_Hash_node_baseEED2Ev W 000000000000003f
_ZNSaIPP9ActorNodeEC1IS0_EERKSaIT_E W 0000000000000043
_ZNSaIPP9ActorNodeEC2IS0_EERKSaIT_E W 0000000000000043
_ZNSaIPP9ActorNodeED1Ev W 000000000000003f
_ZNSaIPP9ActorNodeED2Ev W 000000000000003f
_ZNSaIPSsEC1ISsEERKSaIT_E W 0000000000000043
_ZNSaIPSsEC2ISsEERKSaIT_E W 0000000000000043
_ZNSaIPSsED1Ev W 000000000000003f
_ZNSaIPSsED2Ev W 000000000000003f
_ZNSaIPSt4pairISsSsEEC1IS0_EERKSaIT_E W 0000000000000043
_ZNSaIPSt4pairISsSsEEC2IS0_EERKSaIT_E W 0000000000000043
_ZNSaIPSt4pairISsSsEED1Ev W 000000000000003f
_ZNSaIPSt4pairISsSsEED2Ev W 000000000000003f
_ZNSaISsEC1ERKS_ W 000000000000004a
_ZNSaISsEC1Ev W 000000000000003f
_ZNSaISsEC2ERKS_ W 000000000000004a
_ZNSaISsEC2Ev W 000000000000003f
_ZNSaISsED1Ev W 000000000000003f
_ZNSaISsED2Ev W 000000000000003f
_ZNSaISt4pairIKP9ActorNodeiEEC1INSt8__detail10_Hash_nodeIS3_Lb0EEEEERKSaIT_E W 0000000000000043
_ZNSaISt4pairIKP9ActorNodeiEEC2INSt8__detail10_Hash_nodeIS3_Lb0EEEEERKSaIT_E W 0000000000000043
_ZNSaISt4pairIKP9ActorNodeiEED1Ev W 000000000000003f
_ZNSaISt4pairIKP9ActorNodeiEED2Ev W 000000000000003f
_ZNSaISt4pairIKP9ActorNodeS1_EEC1INSt8__detail10_Hash_nodeIS3_Lb0EEEEERKSaIT_E W 0000000000000043
_ZNSaISt4pairIKP9ActorNodeS1_EEC2INSt8__detail10_Hash_nodeIS3_Lb0EEEEERKSaIT_E W 0000000000000043
_ZNSaISt4pairIKP9ActorNodeS1_EED1Ev W 000000000000003f
_ZNSaISt4pairIKP9ActorNodeS1_EED2Ev W 000000000000003f
_ZNSaISt4pairIKSsP9ActorNodeEEC1INSt8__detail10_Hash_nodeIS3_Lb1EEEEERKSaIT_E W 0000000000000043
_ZNSaISt4pairIKSsP9ActorNodeEEC2INSt8__detail10_Hash_nodeIS3_Lb1EEEEERKSaIT_E W 0000000000000043
_ZNSaISt4pairIKSsP9ActorNodeEED1Ev W 000000000000003f
_ZNSaISt4pairIKSsP9ActorNodeEED2Ev W 000000000000003f
_ZNSaISt4pairIKSsP9MovieNodeEEC1INSt8__detail10_Hash_nodeIS3_Lb1EEEEERKSaIT_E W 0000000000000043
_ZNSaISt4pairIKSsP9MovieNodeEEC2INSt8__detail10_Hash_nodeIS3_Lb1EEEEERKSaIT_E W 0000000000000043
_ZNSaISt4pairIKSsP9MovieNodeEED1Ev W 000000000000003f
_ZNSaISt4pairIKSsP9MovieNodeEED2Ev W 000000000000003f
_ZNSaISt4pairISsSsEED1Ev W 000000000000003f
_ZNSaISt4pairISsSsEED2Ev W 000000000000003f
_ZNSt10_Hash_impl4hashEPKvmm W 0000000000000057
_ZNSt10_HashtableIP9ActorNodeSt4pairIKS1_iESaIS4_ENSt8__detail10_Select1stESt8equal_toIS1_ESt4hashIS1_ENS6_18_Mod_range_hashingENS6_20_Default_ranged_hashENS6_20_Prime_rehash_policyENS6_17_Hashtable_traitsILb0ELb0ELb1EEEE21_M_deallocate_bucketsEPPNS6_15_Hash_node_baseEm W 000000000000008e
_ZNSt10_HashtableIP9ActorNodeSt4pairIKS1_iESaIS4_ENSt8__detail10_Select1stESt8equal_toIS1_ESt4hashIS1_ENS6_18_Mod_range_hashingENS6_20_Default_ranged_hashENS6_20_Prime_rehash_policyENS6_17_Hashtable_traitsILb0ELb0ELb1EEEE21_M_deallocate_bucketsEv W 0000000000000051
_ZNSt10_HashtableIP9ActorNodeSt4pairIKS1_iESaIS4_ENSt8__detail10_Select1stESt8equal_toIS1_ESt4hashIS1_ENS6_18_Mod_range_hashingENS6_20_Default_ranged_hashENS6_20_Prime_rehash_policyENS6_17_Hashtable_traitsILb0ELb0ELb1EEEE5clearEv W 000000000000009f
_ZNSt10_HashtableIP9ActorNodeSt4pairIKS1_iESaIS4_ENSt8__detail10_Select1stESt8equal_toIS1_ESt4hashIS1_ENS6_18_Mod_range_hashingENS6_20_Default_ranged_hashENS6_20_Prime_rehash_policyENS6_17_Hashtable_traitsILb0ELb0ELb1EEEED1Ev W 000000000000007b
_ZNSt10_HashtableIP9ActorNodeSt4pairIKS1_iESaIS4_ENSt8__detail10_Select1stESt8equal_toIS1_ESt4hashIS1_ENS6_18_Mod_range_hashingENS6_20_Default_ranged_hashENS6_20_Prime_rehash_policyENS6_17_Hashtable_traitsILb0ELb0ELb1EEEED2Ev W 000000000000007b
_ZNSt10_HashtableIP9ActorNodeSt4pairIKS1_S1_ESaIS4_ENSt8__detail10_Select1stESt8equal_toIS1_ESt4hashIS1_ENS6_18_Mod_range_hashingENS6_20_Default_ranged_hashENS6_20_Prime_rehash_policyENS6_17_Hashtable_traitsILb0ELb0ELb1EEEE21_M_deallocate_bucketsEPPNS6_15_Hash_node_baseEm W 000000000000008e
_ZNSt10_HashtableIP9ActorNodeSt4pairIKS1_S1_ESaIS4_ENSt8__detail10_Select1stESt8equal_toIS1_ESt4hashIS1_ENS6_18_Mod_range_hashingENS6_20_Default_ranged_hashENS6_20_Prime_rehash_policyENS6_17_Hashtable_traitsILb0ELb0ELb1EEEE21_M_deallocate_bucketsEv W 0000000000000051
_ZNSt10_HashtableIP9ActorNodeSt4pairIKS1_S1_ESaIS4_ENSt8__detail10_Select1stESt8equal_toIS1_ESt4hashIS1_ENS6_18_Mod_range_hashingENS6_20_Default_ranged_hashENS6_20_Prime_rehash_policyENS6_17_Hashtable_traitsILb0ELb0ELb1EEEE5clearEv W 000000000000009f
_ZNSt10_HashtableIP9ActorNodeSt4pairIKS1_S1_ESaIS4_ENSt8__detail10_Select1stESt8equal_toIS1_ESt4hashIS1_ENS6_18_Mod_range_hashingENS6_20_Default_ranged_hashENS6_20_Prime_rehash_policyENS6_17_Hashtable_traitsILb0ELb0ELb1EEEED1Ev W 000000000000007b
_ZNSt10_HashtableIP9ActorNodeSt4pairIKS1_S1_ESaIS4_ENSt8__detail10_Select1stESt8equal_toIS1_ESt4hashIS1_ENS6_18_Mod_range_hashingENS6_20_Default_ranged_hashENS6_20_Prime_rehash_policyENS6_17_Hashtable_traitsILb0ELb0ELb1EEEED2Ev W 000000000000007b
_ZNSt10_HashtableISsSt4pairIKSsP9ActorNodeESaIS4_ENSt8__detail10_Select1stESt8equal_toISsESt4hashISsENS6_18_Mod_range_hashingENS6_20_Default_ranged_hashENS6_20_Prime_rehash_policyENS6_17_Hashtable_traitsILb1ELb0ELb1EEEE10_M_emplaceIJS0_ISsS3_EEEES0_INS6_14_Node_iteratorIS4_Lb0ELb1EEEbESt17integral_constantIbLb1EEDpOT_ W 000000000000035b
_ZNSt10_HashtableISsSt4pairIKSsP9ActorNodeESaIS4_ENSt8__detail10_Select1stESt8equal_toISsESt4hashISsENS6_18_Mod_range_hashingENS6_20_Default_ranged_hashENS6_20_Prime_rehash_policyENS6_17_Hashtable_traitsILb1ELb0ELb1EEEE13_M_rehash_auxEmSt17integral_constantIbLb1EE W 000000000000021a
_ZNSt10_HashtableISsSt4pairIKSsP9ActorNodeESaIS4_ENSt8__detail10_Select1stESt8equal_toISsESt4hashISsENS6_18_Mod_range_hashingENS6_20_Default_ranged_hashENS6_20_Prime_rehash_policyENS6_17_Hashtable_traitsILb1ELb0ELb1EEEE19_M_allocate_bucketsEm W 0000000000000081
_ZNSt10_HashtableISsSt4pairIKSsP9ActorNodeESaIS4_ENSt8__detail10_Select1stESt8equal_toISsESt4hashISsENS6_18_Mod_range_hashingENS6_20_Default_ranged_hashENS6_20_Prime_rehash_policyENS6_17_Hashtable_traitsILb1ELb0ELb1EEEE21_M_deallocate_bucketsEPPNS6_15_Hash_node_baseEm W 000000000000008e
_ZNSt10_HashtableISsSt4pairIKSsP9ActorNodeESaIS4_ENSt8__detail10_Select1stESt8equal_toISsESt4hashISsENS6_18_Mod_range_hashingENS6_20_Default_ranged_hashENS6_20_Prime_rehash_policyENS6_17_Hashtable_traitsILb1ELb0ELb1EEEE21_M_deallocate_bucketsEv W 0000000000000051
_ZNSt10_HashtableISsSt4pairIKSsP9ActorNodeESaIS4_ENSt8__detail10_Select1stESt8equal_toISsESt4hashISsENS6_18_Mod_range_hashingENS6_20_Default_ranged_hashENS6_20_Prime_rehash_policyENS6_17_Hashtable_traitsILb1ELb0ELb1EEEE21_M_insert_unique_nodeEmmPNS6_10_Hash_nodeIS4_Lb1EEE W 00000000000002e9
_ZNSt10_HashtableISsSt4pairIKSsP9ActorNodeESaIS4_ENSt8__detail10_Select1stESt8equal_toISsESt4hashISsENS6_18_Mod_range_hashingENS6_20_Default_ranged_hashENS6_20_Prime_rehash_policyENS6_17_Hashtable_traitsILb1ELb0ELb1EEEE22_M_insert_bucket_beginEmPNS6_10_Hash_nodeIS4_Lb1EEE W 0000000000000149
_ZNSt10_HashtableISsSt4pairIKSsP9ActorNodeESaIS4_ENSt8__detail10_Select1stESt8equal_toISsESt4hashISsENS6_18_Mod_range_hashingENS6_20_Default_ranged_hashENS6_20_Prime_rehash_policyENS6_17_Hashtable_traitsILb1ELb0ELb1EEEE3endEv W 0000000000000047
_ZNSt10_HashtableISsSt4pairIKSsP9ActorNodeESaIS4_ENSt8__detail10_Select1stESt8equal_toISsESt4hashISsENS6_18_Mod_range_hashingENS6_20_Default_ranged_hashENS6_20_Prime_rehash_policyENS6_17_Hashtable_traitsILb1ELb0ELb1EEEE4findERS1_ W 0000000000000114
_ZNSt10_HashtableISsSt4pairIKSsP9ActorNodeESaIS4_ENSt8__detail10_Select1stESt8equal_toISsESt4hashISsENS6_18_Mod_range_hashingENS6_20_Default_ranged_hashENS6_20_Prime_rehash_policyENS6_17_Hashtable_traitsILb1ELb0ELb1EEEE5beginEv W 0000000000000066
_ZNSt10_HashtableISsSt4pairIKSsP9ActorNodeESaIS4_ENSt8__detail10_Select1stESt8equal_toISsESt4hashISsENS6_18_Mod_range_hashingENS6_20_Default_ranged_hashENS6_20_Prime_rehash_policyENS6_17_Hashtable_traitsILb1ELb0ELb1EEEE5clearEv W 000000000000009f
_ZNSt10_HashtableISsSt4pairIKSsP9ActorNodeESaIS4_ENSt8__detail10_Select1stESt8equal_toISsESt4hashISsENS6_18_Mod_range_hashingENS6_20_Default_ranged_hashENS6_20_Prime_rehash_policyENS6_17_Hashtable_traitsILb1ELb0ELb1EEEE9_M_rehashEmRKm W 00000000000000fa
_ZNSt10_HashtableISsSt4pairIKSsP9ActorNodeESaIS4_ENSt8__detail10_Select1stESt8equal_toISsESt4hashISsENS6_18_Mod_range_hashingENS6_20_Default_ranged_hashENS6_20_Prime_rehash_policyENS6_17_Hashtable_traitsILb1ELb0ELb1EEEEC1Ev W 00000000000000be
_ZNSt10_HashtableISsSt4pairIKSsP9ActorNodeESaIS4_ENSt8__detail10_Select1stESt8equal_toISsESt4hashISsENS6_18_Mod_range_hashingENS6_20_Default_ranged_hashENS6_20_Prime_rehash_policyENS6_17_Hashtable_traitsILb1ELb0ELb1EEEEC2Ev W 00000000000000be
_ZNSt10_HashtableISsSt4pairIKSsP9ActorNodeESaIS4_ENSt8__detail10_Select1stESt8equal_toISsESt4hashISsENS6_18_Mod_range_hashingENS6_20_Default_ranged_hashENS6_20_Prime_rehash_policyENS6_17_Hashtable_traitsILb1ELb0ELb1EEEED1Ev W 000000000000007b
_ZNSt10_HashtableISsSt4pairIKSsP9ActorNodeESaIS4_ENSt8__detail10_Select1stESt8equal_toISsESt4hashISsENS6_18_Mod_range_hashingENS6_20_Default_ranged_hashENS6_20_Prime_rehash_policyENS6_17_Hashtable_traitsILb1ELb0ELb1EEEED2Ev W 000000000000007b
_ZNSt10_HashtableISsSt4pairIKSsP9MovieNodeESaIS4_ENSt8__detail10_Select1stESt8equal_toISsESt4hashISsENS6_18_Mod_range_hashingENS6_20_Default_ranged_hashENS6_20_Prime_rehash_policyENS6_17_Hashtable_traitsILb1ELb0ELb1EEEE21_M_deallocate_bucketsEPPNS6_15_Hash_node_baseEm W 000000000000008e
_ZNSt10_HashtableISsSt4pairIKSsP9MovieNodeESaIS4_ENSt8__detail10_Select1stESt8equal_toISsESt4hashISsENS6_18_Mod_range_hashingENS6_20_Default_ranged_hashENS6_20_Prime_rehash_policyENS6_17_Hashtable_traitsILb1ELb0ELb1EEEE21_M_deallocate_bucketsEv W 0000000000000051
_ZNSt10_HashtableISsSt4pairIKSsP9MovieNodeESaIS4_ENSt8__detail10_Select1stESt8equal_toISsESt4hashISsENS6_18_Mod_range_hashingENS6_20_Default_ranged_hashENS6_20_Prime_rehash_policyENS6_17_Hashtable_traitsILb1ELb0ELb1EEEE3endEv W 0000000000000047
_ZNSt10_HashtableISsSt4pairIKSsP9MovieNodeESaIS4_ENSt8__detail10_Select1stESt8equal_toISsESt4hashISsENS6_18_Mod_range_hashingENS6_20_Default_ranged_hashENS6_20_Prime_rehash_policyENS6_17_Hashtable_traitsILb1ELb0ELb1EEEE5beginEv W 0000000000000066
_ZNSt10_HashtableISsSt4pairIKSsP9MovieNodeESaIS4_ENSt8__detail10_Select1stESt8equal_toISsESt4hashISsENS6_18_Mod_range_hashingENS6_20_Default_ranged_hashENS6_20_Prime_rehash_policyENS6_17_Hashtable_traitsILb1ELb0ELb1EEEE5clearEv W 000000000000009f
_ZNSt10_HashtableISsSt4pairIKSsP9MovieNodeESaIS4_ENSt8__detail10_Select1stESt8equal_toISsESt4hashISsENS6_18_Mod_range_hashingENS6_20_Default_ranged_hashENS6_20_Prime_rehash_policyENS6_17_Hashtable_traitsILb1ELb0ELb1EEEED1Ev W 000000000000007b
_ZNSt10_HashtableISsSt4pairIKSsP9MovieNodeESaIS4_ENSt8__detail10_Select1stESt8equal_toISsESt4hashISsENS6_18_Mod_range_hashingENS6_20_Default_ranged_hashENS6_20_Prime_rehash_policyENS6_17_Hashtable_traitsILb1ELb0ELb1EEEED2Ev W 000000000000007b
_ZNSt10__pair_getILm0EE5__getIKSsP9ActorNodeEERT_RSt4pairIS5_T0_E W 0000000000000020
_ZNSt11char_traitsIcE7compareEPKcS2_m W 0000000000000063
_ZNSt11__copy_moveILb0ELb1ESt26random_access_iterator_tagE8__copy_mIPP9ActorNodeEEPT_PKS6_S9_S7_ W 000000000000008c
_ZNSt11__copy_moveILb0ELb1ESt26random_access_iterator_tagE8__copy_mIPSsEEPT_PKS4_S7_S5_ W 000000000000008c
_ZNSt11__copy_moveILb0ELb1ESt26random_access_iterator_tagE8__copy_mIPSt4pairISsSsEEEPT_PKS6_S9_S7_ W 000000000000008c
_ZNSt11__copy_moveILb1ELb1ESt26random_access_iterator_tagE8__copy_mIP9ActorNodeEEPT_PKS5_S8_S6_ W 000000000000008c
_ZNSt11_Deque_baseIP9ActorNodeSaIS1_EE11_Deque_implC1Ev W 000000000000009a
_ZNSt11_Deque_baseIP9ActorNodeSaIS1_EE11_Deque_implC2Ev W 000000000000009a
_ZNSt11_Deque_baseIP9ActorNodeSaIS1_EE11_Deque_implD1Ev W 000000000000003f
_ZNSt11_Deque_baseIP9ActorNodeSaIS1_EE11_Deque_implD2Ev W 000000000000003f
_ZNSt11_Deque_baseIP9ActorNodeSaIS1_EE15_M_allocate_mapEm W 00000000000000db
_ZNSt11_Deque_baseIP9ActorNodeSaIS1_EE15_M_create_nodesEPPS1_S5_ W 000000000000011d
_ZNSt11_Deque_baseIP9ActorNodeSaIS1_EE16_M_allocate_nodeEv W 0000000000000066
_ZNSt11_Deque_baseIP9ActorNodeSaIS1_EE16_M_destroy_nodesEPPS1_S5_ W 000000000000007c
_ZNSt11_Deque_baseIP9ActorNodeSaIS1_EE17_M_deallocate_mapEPPS1_m W 0000000000000095
_ZNSt11_Deque_baseIP9ActorNodeSaIS1_EE17_M_initialize_mapEm W 000000000000029e
_ZNSt11_Deque_baseIP9ActorNodeSaIS1_EE18_M_deallocate_nodeEPS1_ W 0000000000000069
_ZNSt11_Deque_baseIP9ActorNodeSaIS1_EE19_M_get_Tp_allocatorEv W 0000000000000020
_ZNSt11_Deque_baseIP9ActorNodeSaIS1_EEC1Ev W 00000000000000a7
_ZNSt11_Deque_baseIP9ActorNodeSaIS1_EEC2Ev W 00000000000000a7
_ZNSt11_Deque_baseIP9ActorNodeSaIS1_EED1Ev W 00000000000000c2
_ZNSt11_Deque_baseIP9ActorNodeSaIS1_EED2Ev W 00000000000000c2
_ZNSt11_Deque_baseISsSaISsEE11_Deque_implC1Ev W 000000000000009a
_ZNSt11_Deque_baseISsSaISsEE11_Deque_implC2Ev W 000000000000009a
_ZNSt11_Deque_baseISsSaISsEE11_Deque_implD1Ev W 000000000000003f
_ZNSt11_Deque_baseISsSaISsEE11_Deque_implD2Ev W 000000000000003f
_ZNSt11_Deque_baseISsSaISsEE15_M_allocate_mapEm W 00000000000000db
_ZNSt11_Deque_baseISsSaISsEE15_M_create_nodesEPPSsS3_ W 000000000000011d
_ZNSt11_Deque_baseISsSaISsEE16_M_allocate_nodeEv W 0000000000000066
_ZNSt11_Deque_baseISsSaISsEE16_M_destroy_nodesEPPSsS3_ W 000000000000007c
_ZNSt11_Deque_baseISsSaISsEE17_M_deallocate_mapEPPSsm W 0000000000000095
_ZNSt11_Deque_baseISsSaISsEE17_M_initialize_mapEm W 000000000000029e
_ZNSt11_Deque_baseISsSaISsEE18_M_deallocate_nodeEPSs W 0000000000000069
_ZNSt11_Deque_baseISsSaISsEE19_M_get_Tp_allocatorEv W 0000000000000020
_ZNSt11_Deque_baseISsSaISsEEC1Ev W 00000000000000a7
_ZNSt11_Deque_baseISsSaISsEEC2Ev W 00000000000000a7
_ZNSt11_Deque_baseISsSaISsEED1Ev W 00000000000000c2
_ZNSt11_Deque_baseISsSaISsEED2Ev W 00000000000000c2
_ZNSt11_Deque_baseISt4pairISsSsESaIS1_EE11_Deque_implD1Ev W 000000000000003f
_ZNSt11_Deque_baseISt4pairISsSsESaIS1_EE11_Deque_implD2Ev W 000000000000003f
_ZNSt11_Deque_baseISt4pairISsSsESaIS1_EE15_M_allocate_mapEm W 00000000000000db
_ZNSt11_Deque_baseISt4pairISsSsESaIS1_EE16_M_allocate_nodeEv W 0000000000000066
_ZNSt11_Deque_baseISt4pairISsSsESaIS1_EE16_M_destroy_nodesEPPS1_S5_ W 000000000000007c
_ZNSt11_Deque_baseISt4pairISsSsESaIS1_EE17_M_deallocate_mapEPPS1_m W 0000000000000095
_ZNSt11_Deque_baseISt4pairISsSsESaIS1_EE18_M_deallocate_nodeEPS1_ W 0000000000000069
_ZNSt11_Deque_baseISt4pairISsSsESaIS1_EE19_M_get_Tp_allocatorEv W 0000000000000020
_ZNSt11_Deque_baseISt4pairISsSsESaIS1_EED1Ev W 00000000000000c2
_ZNSt11_Deque_baseISt4pairISsSsESaIS1_EED2Ev W 00000000000000c2
_ZNSt12_Destroy_auxILb0EE9__destroyIPSsEEvT_S3_ W 0000000000000083
_ZNSt12_Destroy_auxILb0EE9__destroyIPSt4pairISsSsEEEvT_S5_ W 0000000000000083
_ZNSt12_Destroy_auxILb0EE9__destroyIPSt6vectorISsSaISsEEEEvT_S6_ W 0000000000000083
_ZNSt12_Destroy_auxILb1EE9__destroyIP4EdgeEEvT_S4_ W 0000000000000021
_ZNSt12_Destroy_auxILb1EE9__destroyIPP9ActorNodeEEvT_S5_ W 0000000000000021
_ZNSt12_Vector_baseI4EdgeSaIS0_EE12_Vector_implD1Ev W 000000000000003f
_ZNSt12_Vector_baseI4EdgeSaIS0_EE12_Vector_implD2Ev W 000000000000003f
_ZNSt12_Vector_baseI4EdgeSaIS0_EE13_M_deallocateEPS0_m W 000000000000006b
_ZNSt12_Vector_baseI4EdgeSaIS0_EE19_M_get_Tp_allocatorEv W 0000000000000020
_ZNSt12_Vector_baseI4EdgeSaIS0_EED1Ev W 0000000000000086
_ZNSt12_Vector_baseI4EdgeSaIS0_EED2Ev W 0000000000000086
_ZNSt12_Vector_baseIP9ActorNodeSaIS1_EE11_M_allocateEm W 0000000000000070
_ZNSt12_Vector_baseIP9ActorNodeSaIS1_EE12_Vector_implC1Ev W 0000000000000062
_ZNSt12_Vector_baseIP9ActorNodeSaIS1_EE12_Vector_implC2Ev W 0000000000000062
_ZNSt12_Vector_baseIP9ActorNodeSaIS1_EE12_Vector_implD1Ev W 000000000000003f
_ZNSt12_Vector_baseIP9ActorNodeSaIS1_EE12_Vector_implD2Ev W 000000000000003f
_ZNSt12_Vector_baseIP9ActorNodeSaIS1_EE13_M_deallocateEPS1_m W 000000000000006b
_ZNSt12_Vector_baseIP9ActorNodeSaIS1_EE19_M_get_Tp_allocatorEv W 0000000000000020
_ZNSt12_Vector_baseIP9ActorNodeSaIS1_EEC1Ev W 000000000000003f
_ZNSt12_Vector_baseIP9ActorNodeSaIS1_EEC2Ev W 000000000000003f
_ZNSt12_Vector_baseIP9ActorNodeSaIS1_EED1Ev W 0000000000000086
_ZNSt12_Vector_baseIP9ActorNodeSaIS1_EED2Ev W 0000000000000086
_ZNSt12_Vector_baseISsSaISsEE11_M_allocateEm W 0000000000000070
_ZNSt12_Vector_baseISsSaISsEE12_Vector_impl12_M_swap_dataERS2_ W 00000000000000a4
_ZNSt12_Vector_baseISsSaISsEE12_Vector_implC1EOS0_ W 000000000000008a
_ZNSt12_Vector_baseISsSaISsEE12_Vector_implC1ERKS0_ W 000000000000006d
_ZNSt12_Vector_baseISsSaISsEE12_Vector_implC1Ev W 0000000000000062
_ZNSt12_Vector_baseISsSaISsEE12_Vector_implC2EOS0_ W 000000000000008a
_ZNSt12_Vector_baseISsSaISsEE12_Vector_implC2ERKS0_ W 000000000000006d
_ZNSt12_Vector_baseISsSaISsEE12_Vector_implC2Ev W 0000000000000062
_ZNSt12_Vector_baseISsSaISsEE12_Vector_implD1Ev W 000000000000003f
_ZNSt12_Vector_baseISsSaISsEE12_Vector_implD2Ev W 000000000000003f
_ZNSt12_Vector_baseISsSaISsEE13_M_deallocateEPSsm W 000000000000006b
_ZNSt12_Vector_baseISsSaISsEE17_M_create_storageEm W 000000000000007d
_ZNSt12_Vector_baseISsSaISsEE19_M_get_Tp_allocatorEv W 0000000000000020
_ZNSt12_Vector_baseISsSaISsEEC1EmRKS0_ W 00000000000000b8
_ZNSt12_Vector_baseISsSaISsEEC1EOS1_ W 00000000000000af
_ZNSt12_Vector_baseISsSaISsEEC1Ev W 000000000000003f
_ZNSt12_Vector_baseISsSaISsEEC2EmRKS0_ W 00000000000000b8
_ZNSt12_Vector_baseISsSaISsEEC2EOS1_ W 00000000000000af
_ZNSt12_Vector_baseISsSaISsEEC2Ev W 000000000000003f
_ZNSt12_Vector_baseISsSaISsEED1Ev W 0000000000000086
_ZNSt12_Vector_baseISsSaISsEED2Ev W 0000000000000086
_ZNSt12_Vector_baseISt6vectorISsSaISsEESaIS2_EE11_M_allocateEm W 0000000000000070
_ZNSt12_Vector_baseISt6vectorISsSaISsEESaIS2_EE13_M_deallocateEPS2_m W 000000000000006b
_ZNSt12_Vector_baseISt6vectorISsSaISsEESaIS2_EE19_M_get_Tp_allocatorEv W 0000000000000020
_ZNSt13move_iteratorIPP9ActorNodeEC1ES2_ W 000000000000002c
_ZNSt13move_iteratorIPP9ActorNodeEC2ES2_ W 000000000000002c
_ZNSt13move_iteratorIPSsEC1ES0_ W 000000000000002c
_ZNSt13move_iteratorIPSsEC2ES0_ W 000000000000002c
_ZNSt13move_iteratorIPSsEppEv W 0000000000000032
_ZNSt13move_iteratorIPSt6vectorISsSaISsEEEC1ES3_ W 000000000000002c
_ZNSt13move_iteratorIPSt6vectorISsSaISsEEEC2ES3_ W 000000000000002c
_ZNSt13move_iteratorIPSt6vectorISsSaISsEEEppEv W 0000000000000032
_ZNSt13unordered_mapIP9ActorNodeiSt4hashIS1_ESt8equal_toIS1_ESaISt4pairIKS1_iEEED1Ev W 000000000000003f
_ZNSt13unordered_mapIP9ActorNodeiSt4hashIS1_ESt8equal_toIS1_ESaISt4pairIKS1_iEEED2Ev W 000000000000003f
_ZNSt13unordered_mapIP9ActorNodeS1_St4hashIS1_ESt8equal_toIS1_ESaISt4pairIKS1_S1_EEED1Ev W 000000000000003f
_ZNSt13unordered_mapIP9ActorNodeS1_St4hashIS1_ESt8equal_toIS1_ESaISt4pairIKS1_S1_EEED2Ev W 000000000000003f
_ZNSt13unordered_mapISsP9ActorNodeSt4hashISsESt8equal_toISsESaISt4pairIKSsS1_EEE3endEv W 0000000000000044
_ZNSt13unordered_mapISsP9ActorNodeSt4hashISsESt8equal_toISsESaISt4pairIKSsS1_EEE4findERS7_ W 000000000000004f
_ZNSt13unordered_mapISsP9ActorNodeSt4hashISsESt8equal_toISsESaISt4pairIKSsS1_EEE5beginEv W 0000000000000044
_ZNSt13unordered_mapISsP9ActorNodeSt4hashISsESt8equal_toISsESaISt4pairIKSsS1_EEE6insertIS6_ISsS1_EvEES6_INSt8__detail14_Node_iteratorIS8_Lb0ELb1EEEbEOT_ W 000000000000006c
_ZNSt13unordered_mapISsP9ActorNodeSt4hashISsESt8equal_toISsESaISt4pairIKSsS1_EEEC1Ev W 000000000000003f
_ZNSt13unordered_mapISsP9ActorNodeSt4hashISsESt8equal_toISsESaISt4pairIKSsS1_EEEC2Ev W 000000000000003f
_ZNSt13unordered_mapISsP9ActorNodeSt4hashISsESt8equal_toISsESaISt4pairIKSsS1_EEED1Ev W 000000000000003f
_ZNSt13unordered_mapISsP9ActorNodeSt4hashISsESt8equal_toISsESaISt4pairIKSsS1_EEED2Ev W 000000000000003f
_ZNSt13unordered_mapISsP9MovieNodeSt4hashISsESt8equal_toISsESaISt4pairIKSsS1_EEE3endEv W 0000000000000044
_ZNSt13unordered_mapISsP9MovieNodeSt4hashISsESt8equal_toISsESaISt4pairIKSsS1_EEE5beginEv W 0000000000000044
_ZNSt13unordered_mapISsP9MovieNodeSt4hashISsESt8equal_toISsESaISt4pairIKSsS1_EEED1Ev W 000000000000003f
_ZNSt13unordered_mapISsP9MovieNodeSt4hashISsESt8equal_toISsESaISt4pairIKSsS1_EEED2Ev W 000000000000003f
_ZNSt14pointer_traitsIPNSt8__detail10_Hash_nodeISt4pairIKP9ActorNodeiELb0EEEE10pointer_toERS7_ W 0000000000000044
_ZNSt14pointer_traitsIPNSt8__detail10_Hash_nodeISt4pairIKP9ActorNodeS4_ELb0EEEE10pointer_toERS7_ W 0000000000000044
_ZNSt14pointer_traitsIPNSt8__detail10_Hash_nodeISt4pairIKSsP9ActorNodeELb1EEEE10pointer_toERS7_ W 0000000000000044
_ZNSt14pointer_traitsIPNSt8__detail10_Hash_nodeISt4pairIKSsP9MovieNodeELb1EEEE10pointer_toERS7_ W 0000000000000044
_ZNSt14pointer_traitsIPPNSt8__detail15_Hash_node_baseEE10pointer_toERS2_ W 0000000000000044
_ZNSt14priority_queueI4EdgeSt6vectorIS0_SaIS0_EE8EdgeCompED1Ev W 000000000000003f
_ZNSt14priority_queueI4EdgeSt6vectorIS0_SaIS0_EE8EdgeCompED2Ev W 000000000000003f
_ZNSt14priority_queueIP9ActorNodeSt6vectorIS1_SaIS1_EE12ActorDisCompE3popEv W 00000000000000b2
_ZNSt14priority_queueIP9ActorNodeSt6vectorIS1_SaIS1_EE12ActorDisCompE4pushERKS1_ W 00000000000000bd
_ZNSt14priority_queueIP9ActorNodeSt6vectorIS1_SaIS1_EE12ActorDisCompEC1IS4_vEEv W 000000000000003f
_ZNSt14priority_queueIP9ActorNodeSt6vectorIS1_SaIS1_EE12ActorDisCompEC2IS4_vEEv W 000000000000003f
_ZNSt14priority_queueIP9ActorNodeSt6vectorIS1_SaIS1_EE12ActorDisCompED1Ev W 000000000000003f
_ZNSt14priority_queueIP9ActorNodeSt6vectorIS1_SaIS1_EE12ActorDisCompED2Ev W 000000000000003f
_ZNSt14priority_queueIP9ActorNodeSt6vectorIS1_SaIS1_EE13ActorNodeCompE3popEv W 00000000000000b2
_ZNSt14priority_queueIP9ActorNodeSt6vectorIS1_SaIS1_EE13ActorNodeCompE4pushERKS1_ W 00000000000000bd
_ZNSt14priority_queueIP9ActorNodeSt6vectorIS1_SaIS1_EE13ActorNodeCompEC1IS4_vEEv W 000000000000003f
_ZNSt14priority_queueIP9ActorNodeSt6vectorIS1_SaIS1_EE13ActorNodeCompEC2IS4_vEEv W 000000000000003f
_ZNSt14priority_queueIP9ActorNodeSt6vectorIS1_SaIS1_EE13ActorNodeCompED1Ev W 000000000000003f
_ZNSt14priority_queueIP9ActorNodeSt6vectorIS1_SaIS1_EE13ActorNodeCompED2Ev W 000000000000003f
_ZNSt15_Deque_iteratorIP9ActorNodeRS1_PS1_E11_M_set_nodeEPS3_ W 000000000000007c
_ZNSt15_Deque_iteratorIP9ActorNodeRS1_PS1_E14_S_buffer_sizeEv W 000000000000003a
_ZNSt15_Deque_iteratorIP9ActorNodeRS1_PS1_EC1ERKS4_ W 000000000000005f
_ZNSt15_Deque_iteratorIP9ActorNodeRS1_PS1_EC1Ev W 000000000000004c
_ZNSt15_Deque_iteratorIP9ActorNodeRS1_PS1_EC2ERKS4_ W 000000000000005f
_ZNSt15_Deque_iteratorIP9ActorNodeRS1_PS1_EC2Ev W 000000000000004c
_ZNSt15_Deque_iteratorISsRSsPSsE11_M_set_nodeEPS1_ W 000000000000007c
_ZNSt15_Deque_iteratorISsRSsPSsE14_S_buffer_sizeEv W 000000000000003a
_ZNSt15_Deque_iteratorISsRSsPSsEC1ERKS2_ W 000000000000005f
_ZNSt15_Deque_iteratorISsRSsPSsEC1Ev W 000000000000004c
_ZNSt15_Deque_iteratorISsRSsPSsEC2ERKS2_ W 000000000000005f
_ZNSt15_Deque_iteratorISsRSsPSsEC2Ev W 000000000000004c
_ZNSt15_Deque_iteratorISsRSsPSsEmmEv W 0000000000000098
_ZNSt15_Deque_iteratorISt4pairISsSsERS1_PS1_E11_M_set_nodeEPS3_ W 000000000000007b
_ZNSt15_Deque_iteratorISt4pairISsSsERS1_PS1_E14_S_buffer_sizeEv W 000000000000003a
_ZNSt15_Deque_iteratorISt4pairISsSsERS1_PS1_EC1ERKS4_ W 000000000000005f
_ZNSt15_Deque_iteratorISt4pairISsSsERS1_PS1_EC2ERKS4_ W 000000000000005f
_ZNSt16allocator_traitsISaI4EdgeEE10deallocateERS1_PS0_m W 0000000000000052
_ZNSt16allocator_traitsISaINSt8__detail10_Hash_nodeISt4pairIKP9ActorNodeiELb0EEEEE10deallocateERS8_PS7_m W 0000000000000052
_ZNSt16allocator_traitsISaINSt8__detail10_Hash_nodeISt4pairIKP9ActorNodeS4_ELb0EEEEE10deallocateERS8_PS7_m W 0000000000000052
_ZNSt16allocator_traitsISaINSt8__detail10_Hash_nodeISt4pairIKSsP9ActorNodeELb1EEEEE10deallocateERS8_PS7_m W 0000000000000052
_ZNSt16allocator_traitsISaINSt8__detail10_Hash_nodeISt4pairIKSsP9ActorNodeELb1EEEEE8allocateERS8_m W 0000000000000054
_ZNSt16allocator_traitsISaINSt8__detail10_Hash_nodeISt4pairIKSsP9MovieNodeELb1EEEEE10deallocateERS8_PS7_m W 0000000000000052
_ZNSt16allocator_traitsISaIP9ActorNodeEE10deallocateERS2_PS1_m W 0000000000000052
_ZNSt16allocator_traitsISaIP9ActorNodeEE7destroyIS1_EEvRS2_PT_ W 000000000000004a
_ZNSt16allocator_traitsISaIP9ActorNodeEE8allocateERS2_m W 0000000000000054
_ZNSt16allocator_traitsISaIP9ActorNodeEE8max_sizeERKS2_ W 0000000000000044
_ZNSt16allocator_traitsISaIP9ActorNodeEE9constructIS1_JRKS1_EEEvRS2_PT_DpOT0_ W 000000000000006f
_ZNSt16allocator_traitsISaIPNSt8__detail15_Hash_node_baseEEE10deallocateERS3_PS2_m W 0000000000000052
_ZNSt16allocator_traitsISaIPNSt8__detail15_Hash_node_baseEEE8allocateERS3_m W 0000000000000054
_ZNSt16allocator_traitsISaIPP9ActorNodeEE10deallocateERS3_PS2_m W 0000000000000052
_ZNSt16allocator_traitsISaIPP9ActorNodeEE8allocateERS3_m W 0000000000000054
_ZNSt16allocator_traitsISaIPSsEE10deallocateERS1_PS0_m W 0000000000000052
_ZNSt16allocator_traitsISaIPSsEE8allocateERS1_m W 0000000000000054
_ZNSt16allocator_traitsISaIPSt4pairISsSsEEE10deallocateERS3_PS2_m W 0000000000000052
_ZNSt16allocator_traitsISaIPSt4pairISsSsEEE8allocateERS3_m W 0000000000000054
_ZNSt16allocator_traitsISaISsEE10deallocateERS0_PSsm W 0000000000000052
_ZNSt16allocator_traitsISaISsEE37select_on_container_copy_constructionERKS0_ W 000000000000004d
_ZNSt16allocator_traitsISaISsEE7destroyISsEEvRS0_PT_ W 000000000000004a
_ZNSt16allocator_traitsISaISsEE8allocateERS0_m W 0000000000000054
_ZNSt16allocator_traitsISaISsEE8max_sizeERKS0_ W 0000000000000044
_ZNSt16allocator_traitsISaISsEE9constructISsJRKSsEEEvRS0_PT_DpOT0_ W 000000000000006f
_ZNSt16allocator_traitsISaISt4pairIKP9ActorNodeiEEE7destroyIS4_EEvRS5_PT_ W 000000000000004a
_ZNSt16allocator_traitsISaISt4pairIKP9ActorNodeS2_EEE7destroyIS4_EEvRS5_PT_ W 000000000000004a
_ZNSt16allocator_traitsISaISt4pairIKSsP9ActorNodeEEE7destroyIS4_EEvRS5_PT_ W 000000000000004a
_ZNSt16allocator_traitsISaISt4pairIKSsP9ActorNodeEEE9constructIS4_JS0_ISsS3_EEEEvRS5_PT_DpOT0_ W 000000000000006f
_ZNSt16allocator_traitsISaISt4pairIKSsP9MovieNodeEEE7destroyIS4_EEvRS5_PT_ W 000000000000004a
_ZNSt16allocator_traitsISaISt4pairISsSsEEE10deallocateERS2_PS1_m W 0000000000000052
_ZNSt16allocator_traitsISaISt4pairISsSsEEE7destroyIS1_EEvRS2_PT_ W 000000000000004a
_ZNSt16allocator_traitsISaISt4pairISsSsEEE8allocateERS2_m W 0000000000000054
_ZNSt16allocator_traitsISaISt4pairISsSsEEE9constructIS1_JS1_EEEvRS2_PT_DpOT0_ W 000000000000006f
_ZNSt16allocator_traitsISaISt6vectorISsSaISsEEEE10deallocateERS3_PS2_m W 0000000000000052
_ZNSt16allocator_traitsISaISt6vectorISsSaISsEEEE7destroyIS2_EEvRS3_PT_ W 000000000000004a
_ZNSt16allocator_traitsISaISt6vectorISsSaISsEEEE8allocateERS3_m W 0000000000000054
_ZNSt16allocator_traitsISaISt6vectorISsSaISsEEEE8max_sizeERKS3_ W 0000000000000044
_ZNSt16allocator_traitsISaISt6vectorISsSaISsEEEE9constructIS2_JRKS2_EEEvRS3_PT_DpOT0_ W 000000000000006f
_ZNSt20__copy_move_backwardILb0ELb1ESt26random_access_iterator_tagE13__copy_move_bIPP9ActorNodeEEPT_PKS6_S9_S7_ W 000000000000009f
_ZNSt20__copy_move_backwardILb0ELb1ESt26random_access_iterator_tagE13__copy_move_bIPSsEEPT_PKS4_S7_S5_ W 000000000000009f
_ZNSt20__copy_move_backwardILb0ELb1ESt26random_access_iterator_tagE13__copy_move_bIPSt4pairISsSsEEEPT_PKS6_S9_S7_ W 000000000000009f
_ZNSt20__uninitialized_copyILb0EE13__uninit_copyIN9__gnu_cxx17__normal_iteratorIPKSsSt6vectorISsSaISsEEEEPSsEET0_T_SC_SB_ W 00000000000001af
_ZNSt20__uninitialized_copyILb0EE13__uninit_copyISt13move_iteratorIPSsES3_EET0_T_S6_S5_ W 00000000000001af
_ZNSt20__uninitialized_copyILb0EE13__uninit_copyISt13move_iteratorIPSt6vectorISsSaISsEEES6_EET0_T_S9_S8_ W 00000000000001af
_ZNSt20__uninitialized_copyILb1EE13__uninit_copyISt13move_iteratorIPP9ActorNodeES5_EET0_T_S8_S7_ W 0000000000000057
_ZNSt4pairIKSsP9ActorNodeEC1ERKS3_ W 000000000000005a
_ZNSt4pairIKSsP9ActorNodeEC1ISsS2_Lb1EEEOS_IT_T0_E W 000000000000009d
_ZNSt4pairIKSsP9ActorNodeEC2ERKS3_ W 000000000000005a
_ZNSt4pairIKSsP9ActorNodeEC2ISsS2_Lb1EEEOS_IT_T0_E W 000000000000009d
_ZNSt4pairIKSsP9ActorNodeED1Ev W 000000000000003f
_ZNSt4pairIKSsP9ActorNodeED2Ev W 000000000000003f
_ZNSt4pairIKSsP9MovieNodeED1Ev W 000000000000003f
_ZNSt4pairIKSsP9MovieNodeED2Ev W 000000000000003f
_ZNSt4pairINSt8__detail14_Node_iteratorIS_IKSsP9ActorNodeELb0ELb1EEEbEC1IS6_bLb1EEEOT_OT0_ W 000000000000007f
_ZNSt4pairINSt8__detail14_Node_iteratorIS_IKSsP9ActorNodeELb0ELb1EEEbEC2IS6_bLb1EEEOT_OT0_ W 000000000000007f
_ZNSt4pairISsP9ActorNodeEC1IRSsRS1_Lb1EEEOT_OT0_ W 000000000000009d
_ZNSt4pairISsP9ActorNodeEC2IRSsRS1_Lb1EEEOT_OT0_ W 000000000000009d
_ZNSt4pairISsP9ActorNodeED1Ev W 000000000000003f
_ZNSt4pairISsP9ActorNodeED2Ev W 000000000000003f
_ZNSt4pairISsSsEC1EOS0_ W 0000000000000077
_ZNSt4pairISsSsEC1IRSsS2_Lb1EEEOT_OT0_ W 00000000000000f6
_ZNSt4pairISsSsEC2EOS0_ W 0000000000000077
_ZNSt4pairISsSsEC2IRSsS2_Lb1EEEOT_OT0_ W 00000000000000f6
_ZNSt4pairISsSsED1Ev W 0000000000000061
_ZNSt4pairISsSsED2Ev W 0000000000000061
_ZNSt5dequeIP9ActorNodeSaIS1_EE15_M_destroy_dataESt15_Deque_iteratorIS1_RS1_PS1_ES7_RKS2_ W 0000000000000029
_ZNSt5dequeIP9ActorNodeSaIS1_EE16_M_pop_front_auxEv W 00000000000000d7
_ZNSt5dequeIP9ActorNodeSaIS1_EE16_M_push_back_auxIJRKS1_EEEvDpOT_ W 0000000000000109
_ZNSt5dequeIP9ActorNodeSaIS1_EE17_M_reallocate_mapEmb W 000000000000030e
_ZNSt5dequeIP9ActorNodeSaIS1_EE22_M_reserve_map_at_backEm W 0000000000000098
_ZNSt5dequeIP9ActorNodeSaIS1_EE3endEv W 0000000000000051
_ZNSt5dequeIP9ActorNodeSaIS1_EE5beginEv W 0000000000000051
_ZNSt5dequeIP9ActorNodeSaIS1_EE5frontEv W 0000000000000069
_ZNSt5dequeIP9ActorNodeSaIS1_EE9pop_frontEv W 00000000000000a9
_ZNSt5dequeIP9ActorNodeSaIS1_EE9push_backERKS1_ W 00000000000000b8
_ZNSt5dequeIP9ActorNodeSaIS1_EEC1Ev W 000000000000003f
_ZNSt5dequeIP9ActorNodeSaIS1_EEC2Ev W 000000000000003f
_ZNSt5dequeIP9ActorNodeSaIS1_EED1Ev W 00000000000000d9
_ZNSt5dequeIP9ActorNodeSaIS1_EED2Ev W 00000000000000d9
_ZNSt5dequeISsSaISsEE14_S_buffer_sizeEv W 000000000000003a
_ZNSt5dequeISsSaISsEE15_M_destroy_dataESt15_Deque_iteratorISsRSsPSsES5_RKS0_ W 00000000000000c1
_ZNSt5dequeISsSaISsEE15_M_pop_back_auxEv W 00000000000000db
_ZNSt5dequeISsSaISsEE16_M_push_back_auxIJRKSsEEEvDpOT_ W 00000000000001ab
_ZNSt5dequeISsSaISsEE17_M_reallocate_mapEmb W 000000000000030e
_ZNSt5dequeISsSaISsEE19_M_destroy_data_auxESt15_Deque_iteratorISsRSsPSsES5_ W 00000000000001f9
_ZNSt5dequeISsSaISsEE22_M_reserve_map_at_backEm W 0000000000000098
_ZNSt5dequeISsSaISsEE3endEv W 0000000000000051
_ZNSt5dequeISsSaISsEE4backEv W 0000000000000087
_ZNSt5dequeISsSaISsEE5beginEv W 0000000000000051
_ZNSt5dequeISsSaISsEE8pop_backEv W 00000000000000a5
_ZNSt5dequeISsSaISsEE9push_backERKSs W 00000000000000b8
_ZNSt5dequeISsSaISsEEC1Ev W 000000000000003f
_ZNSt5dequeISsSaISsEEC2Ev W 000000000000003f
_ZNSt5dequeISsSaISsEED1Ev W 00000000000000d9
_ZNSt5dequeISsSaISsEED2Ev W 00000000000000d9
_ZNSt5dequeISt4pairISsSsESaIS1_EE12emplace_backIJS1_EEEvDpOT_ W 00000000000000f2
_ZNSt5dequeISt4pairISsSsESaIS1_EE14_S_buffer_sizeEv W 000000000000003a
_ZNSt5dequeISt4pairISsSsESaIS1_EE15_M_destroy_dataESt15_Deque_iteratorIS1_RS1_PS1_ES7_RKS2_ W 00000000000000c1
_ZNSt5dequeISt4pairISsSsESaIS1_EE15_M_pop_back_auxEv W 00000000000000db
_ZNSt5dequeISt4pairISsSsESaIS1_EE16_M_push_back_auxIJS1_EEEvDpOT_ W 0000000000000109
_ZNSt5dequeISt4pairISsSsESaIS1_EE17_M_reallocate_mapEmb W 000000000000030e
_ZNSt5dequeISt4pairISsSsESaIS1_EE19_M_destroy_data_auxESt15_Deque_iteratorIS1_RS1_PS1_ES7_ W 00000000000001f8
_ZNSt5dequeISt4pairISsSsESaIS1_EE22_M_reserve_map_at_backEm W 0000000000000098
_ZNSt5dequeISt4pairISsSsESaIS1_EE3endEv W 0000000000000051
_ZNSt5dequeISt4pairISsSsESaIS1_EE5beginEv W 0000000000000051
_ZNSt5dequeISt4pairISsSsESaIS1_EE8pop_backEv W 00000000000000a5
_ZNSt5dequeISt4pairISsSsESaIS1_EE9push_backEOS1_ W 0000000000000067
_ZNSt5dequeISt4pairISsSsESaIS1_EED1Ev W 00000000000000d9
_ZNSt5dequeISt4pairISsSsESaIS1_EED2Ev W 00000000000000d9
_ZNSt5queueIP9ActorNodeSt5dequeIS1_SaIS1_EEE3popEv W 000000000000003f
_ZNSt5queueIP9ActorNodeSt5dequeIS1_SaIS1_EEE4pushERKS1_ W 000000000000004a
_ZNSt5queueIP9ActorNodeSt5dequeIS1_SaIS1_EEE5frontEv W 0000000000000044
_ZNSt5queueIP9ActorNodeSt5dequeIS1_SaIS1_EEEC1IS4_vEEv W 000000000000003f
_ZNSt5queueIP9ActorNodeSt5dequeIS1_SaIS1_EEEC2IS4_vEEv W 000000000000003f
_ZNSt5queueIP9ActorNodeSt5dequeIS1_SaIS1_EEED1Ev W 000000000000003f
_ZNSt5queueIP9ActorNodeSt5dequeIS1_SaIS1_EEED2Ev W 000000000000003f
_ZNSt5stackISsSsED1Ev W 000000000000003f
_ZNSt5stackISsSsED2Ev W 000000000000003f
_ZNSt5stackISsSt5dequeISsSaISsEEE3popEv W 000000000000003f
_ZNSt5stackISsSt5dequeISsSaISsEEE3topEv W 0000000000000044
_ZNSt5stackISsSt5dequeISsSaISsEEE4pushERKSs W 000000000000004a
_ZNSt5stackISsSt5dequeISsSaISsEEEC1IS2_vEEv W 000000000000003f
_ZNSt5stackISsSt5dequeISsSaISsEEEC2IS2_vEEv W 000000000000003f
_ZNSt5stackISsSt5dequeISsSaISsEEED1Ev W 000000000000003f
_ZNSt5stackISsSt5dequeISsSaISsEEED2Ev W 000000000000003f
_ZNSt5stackISt4pairISsSsESt5dequeIS1_SaIS1_EEE3popEv W 000000000000003f
_ZNSt5stackISt4pairISsSsESt5dequeIS1_SaIS1_EEE4pushEOS1_ W 000000000000006d
_ZNSt5stackISt4pairISsSsESt5dequeIS1_SaIS1_EEED1Ev W 000000000000003f
_ZNSt5stackISt4pairISsSsESt5dequeIS1_SaIS1_EEED2Ev W 000000000000003f
_ZNSt6vectorI4EdgeSaIS0_EE3endEv W 000000000000004d
_ZNSt6vectorI4EdgeSaIS0_EE5beginEv W 0000000000000049
_ZNSt6vectorI4EdgeSaIS0_EED1Ev W 000000000000008c
_ZNSt6vectorI4EdgeSaIS0_EED2Ev W 000000000000008c
_ZNSt6vectorIP9ActorNodeSaIS1_EE17_M_realloc_insertIJRKS1_EEEvN9__gnu_cxx17__normal_iteratorIPS1_S3_EEDpOT_ W 000000000000049d
_ZNSt6vectorIP9ActorNodeSaIS1_EE3endEv W 000000000000004d
_ZNSt6vectorIP9ActorNodeSaIS1_EE5beginEv W 0000000000000049
_ZNSt6vectorIP9ActorNodeSaIS1_EE8pop_backEv W 000000000000005e
_ZNSt6vectorIP9ActorNodeSaIS1_EE9push_backERKS1_ W 00000000000000d5
_ZNSt6vectorIP9ActorNodeSaIS1_EEC1Ev W 000000000000003f
_ZNSt6vectorIP9ActorNodeSaIS1_EEC2Ev W 000000000000003f
_ZNSt6vectorIP9ActorNodeSaIS1_EED1Ev W 000000000000008c
_ZNSt6vectorIP9ActorNodeSaIS1_EED2Ev W 000000000000008c
_ZNSt6vectorIS_ISsSaISsEESaIS1_EE17_M_realloc_insertIJRKS1_EEEvN9__gnu_cxx17__normal_iteratorIPS1_S3_EEDpOT_ W 00000000000004c8
_ZNSt6vectorIS_ISsSaISsEESaIS1_EE3endEv W 000000000000004d
_ZNSt6vectorIS_ISsSaISsEESaIS1_EE5beginEv W 0000000000000049
_ZNSt6vectorIS_ISsSaISsEESaIS1_EE9push_backERKS1_ W 00000000000000d5
_ZNSt6vectorISsSaISsEE17_M_realloc_insertIJRKSsEEEvN9__gnu_cxx17__normal_iteratorIPSsS1_EEDpOT_ W 000000000000049f
_ZNSt6vectorISsSaISsEE3endEv W 000000000000004d
_ZNSt6vectorISsSaISsEE5beginEv W 0000000000000049
_ZNSt6vectorISsSaISsEE9push_backERKSs W 00000000000000d5
_ZNSt6vectorISsSaISsEEC1EOS1_ W 0000000000000070
_ZNSt6vectorISsSaISsEEC1ERKS1_ W 00000000000001f1
_ZNSt6vectorISsSaISsEEC1Ev W 000000000000003f
_ZNSt6vectorISsSaISsEEC2EOS1_ W 0000000000000070
_ZNSt6vectorISsSaISsEEC2ERKS1_ W 00000000000001f1
_ZNSt6vectorISsSaISsEEC2Ev W 000000000000003f
_ZNSt6vectorISsSaISsEED1Ev W 000000000000008c
_ZNSt6vectorISsSaISsEED2Ev W 000000000000008c
_ZNSt8__detail10_Hash_nodeISt4pairIKSsP9ActorNodeELb1EEC1Ev W 000000000000003f
_ZNSt8__detail10_Hash_nodeISt4pairIKSsP9ActorNodeELb1EEC2Ev W 000000000000003f
_ZNSt8__detail12_Insert_baseISsSt4pairIKSsP9ActorNodeESaIS5_ENS_10_Select1stESt8equal_toISsESt4hashISsENS_18_Mod_range_hashingENS_20_Default_ranged_hashENS_20_Prime_rehash_policyENS_17_Hashtable_traitsILb1ELb0ELb1EEEE20_M_conjure_hashtableEv W 0000000000000020
_ZNSt8__detail13_Equal_helperISsSt4pairIKSsP9ActorNodeENS_10_Select1stESt8equal_toISsEmLb1EE9_S_equalsERKS8_RKS6_RS2_mPNS_10_Hash_nodeIS5_Lb1EEE W 00000000000000e5
_ZNSt8__detail14_Node_iteratorISt4pairIKSsP9ActorNodeELb0ELb1EEC1EPNS_10_Hash_nodeIS5_Lb1EEE W 000000000000004a
_ZNSt8__detail14_Node_iteratorISt4pairIKSsP9ActorNodeELb0ELb1EEC2EPNS_10_Hash_nodeIS5_Lb1EEE W 000000000000004a
_ZNSt8__detail14_Node_iteratorISt4pairIKSsP9ActorNodeELb0ELb1EEppEv W 0000000000000042
_ZNSt8__detail14_Node_iteratorISt4pairIKSsP9MovieNodeELb0ELb1EEC1EPNS_10_Hash_nodeIS5_Lb1EEE W 000000000000004a
_ZNSt8__detail14_Node_iteratorISt4pairIKSsP9MovieNodeELb0ELb1EEC2EPNS_10_Hash_nodeIS5_Lb1EEE W 000000000000004a
_ZNSt8__detail14_Node_iteratorISt4pairIKSsP9MovieNodeELb0ELb1EEppEv W 0000000000000042
_ZNSt8__detail15_Hash_code_baseISsSt4pairIKSsP9ActorNodeENS_10_Select1stESt4hashISsENS_18_Mod_range_hashingENS_20_Default_ranged_hashELb1EE10_M_extractEv W 0000000000000044
_ZNSt8__detail15_Hash_node_baseC1Ev W 0000000000000028
_ZNSt8__detail15_Hash_node_baseC2Ev W 0000000000000028
_ZNSt8__detail16_Hashtable_allocISaINS_10_Hash_nodeISt4pairIKP9ActorNodeiELb0EEEEE17_M_node_allocatorEv W 0000000000000044
_ZNSt8__detail16_Hashtable_allocISaINS_10_Hash_nodeISt4pairIKP9ActorNodeiELb0EEEEE18_M_deallocate_nodeEPS7_ W 00000000000001c5
_ZNSt8__detail16_Hashtable_allocISaINS_10_Hash_nodeISt4pairIKP9ActorNodeiELb0EEEEE19_M_deallocate_nodesEPS7_ W 0000000000000090
_ZNSt8__detail16_Hashtable_allocISaINS_10_Hash_nodeISt4pairIKP9ActorNodeiELb0EEEEE21_M_deallocate_bucketsEPPNS_15_Hash_node_baseEm W 0000000000000139
_ZNSt8__detail16_Hashtable_allocISaINS_10_Hash_nodeISt4pairIKP9ActorNodeiELb0EEEEED1Ev W 000000000000003f
_ZNSt8__detail16_Hashtable_allocISaINS_10_Hash_nodeISt4pairIKP9ActorNodeiELb0EEEEED2Ev W 000000000000003f
_ZNSt8__detail16_Hashtable_allocISaINS_10_Hash_nodeISt4pairIKP9ActorNodeS4_ELb0EEEEE17_M_node_allocatorEv W 0000000000000044
_ZNSt8__detail16_Hashtable_allocISaINS_10_Hash_nodeISt4pairIKP9ActorNodeS4_ELb0EEEEE18_M_deallocate_nodeEPS7_ W 00000000000001c5
_ZNSt8__detail16_Hashtable_allocISaINS_10_Hash_nodeISt4pairIKP9ActorNodeS4_ELb0EEEEE19_M_deallocate_nodesEPS7_ W 0000000000000090
_ZNSt8__detail16_Hashtable_allocISaINS_10_Hash_nodeISt4pairIKP9ActorNodeS4_ELb0EEEEE21_M_deallocate_bucketsEPPNS_15_Hash_node_baseEm W 0000000000000139
_ZNSt8__detail16_Hashtable_allocISaINS_10_Hash_nodeISt4pairIKP9ActorNodeS4_ELb0EEEEED1Ev W 000000000000003f
_ZNSt8__detail16_Hashtable_allocISaINS_10_Hash_nodeISt4pairIKP9ActorNodeS4_ELb0EEEEED2Ev W 000000000000003f
_ZNSt8__detail16_Hashtable_allocISaINS_10_Hash_nodeISt4pairIKSsP9ActorNodeELb1EEEEE16_M_allocate_nodeIJS2_ISsS5_EEEEPS7_DpOT_ W 00000000000002d8
_ZNSt8__detail16_Hashtable_allocISaINS_10_Hash_nodeISt4pairIKSsP9ActorNodeELb1EEEEE17_M_node_allocatorEv W 0000000000000044
_ZNSt8__detail16_Hashtable_allocISaINS_10_Hash_nodeISt4pairIKSsP9ActorNodeELb1EEEEE18_M_deallocate_nodeEPS7_ W 00000000000001c5
_ZNSt8__detail16_Hashtable_allocISaINS_10_Hash_nodeISt4pairIKSsP9ActorNodeELb1EEEEE19_M_allocate_bucketsEm W 000000000000013c
_ZNSt8__detail16_Hashtable_allocISaINS_10_Hash_nodeISt4pairIKSsP9ActorNodeELb1EEEEE19_M_deallocate_nodesEPS7_ W 0000000000000090
_ZNSt8__detail16_Hashtable_allocISaINS_10_Hash_nodeISt4pairIKSsP9ActorNodeELb1EEEEE21_M_deallocate_bucketsEPPNS_15_Hash_node_baseEm W 0000000000000139
_ZNSt8__detail16_Hashtable_allocISaINS_10_Hash_nodeISt4pairIKSsP9ActorNodeELb1EEEEEC1Ev W 000000000000003f
_ZNSt8__detail16_Hashtable_allocISaINS_10_Hash_nodeISt4pairIKSsP9ActorNodeELb1EEEEEC2Ev W 000000000000003f
_ZNSt8__detail16_Hashtable_allocISaINS_10_Hash_nodeISt4pairIKSsP9ActorNodeELb1EEEEED1Ev W 000000000000003f
_ZNSt8__detail16_Hashtable_allocISaINS_10_Hash_nodeISt4pairIKSsP9ActorNodeELb1EEEEED2Ev W 000000000000003f
_ZNSt8__detail16_Hashtable_allocISaINS_10_Hash_nodeISt4pairIKSsP9MovieNodeELb1EEEEE17_M_node_allocatorEv W 0000000000000044
_ZNSt8__detail16_Hashtable_allocISaINS_10_Hash_nodeISt4pairIKSsP9MovieNodeELb1EEEEE18_M_deallocate_nodeEPS7_ W 00000000000001c5
_ZNSt8__detail16_Hashtable_allocISaINS_10_Hash_nodeISt4pairIKSsP9MovieNodeELb1EEEEE19_M_deallocate_nodesEPS7_ W 0000000000000090
_ZNSt8__detail16_Hashtable_allocISaINS_10_Hash_nodeISt4pairIKSsP9MovieNodeELb1EEEEE21_M_deallocate_bucketsEPPNS_15_Hash_node_baseEm W 0000000000000139
_ZNSt8__detail16_Hashtable_allocISaINS_10_Hash_nodeISt4pairIKSsP9MovieNodeELb1EEEEED1Ev W 000000000000003f
_ZNSt8__detail16_Hashtable_allocISaINS_10_Hash_nodeISt4pairIKSsP9MovieNodeELb1EEEEED2Ev W 000000000000003f
_ZNSt8__detail19_Node_iterator_baseISt4pairIKSsP9ActorNodeELb1EE7_M_incrEv W 000000000000004c
_ZNSt8__detail19_Node_iterator_baseISt4pairIKSsP9ActorNodeELb1EEC1EPNS_10_Hash_nodeIS5_Lb1EEE W 000000000000002c
_ZNSt8__detail19_Node_iterator_baseISt4pairIKSsP9ActorNodeELb1EEC2EPNS_10_Hash_nodeIS5_Lb1EEE W 000000000000002c
_ZNSt8__detail19_Node_iterator_baseISt4pairIKSsP9MovieNodeELb1EE7_M_incrEv W 000000000000004c
_ZNSt8__detail19_Node_iterator_baseISt4pairIKSsP9MovieNodeELb1EEC1EPNS_10_Hash_nodeIS5_Lb1EEE W 000000000000002c
_ZNSt8__detail19_Node_iterator_baseISt4pairIKSsP9MovieNodeELb1EEC2EPNS_10_Hash_nodeIS5_Lb1EEE W 000000000000002c
_ZNSt8__detail20_Prime_rehash_policy8_M_resetEm W 000000000000002d
_ZNSt8__detail20_Prime_rehash_policyC1Ef W 000000000000003b
_ZNSt8__detail20_Prime_rehash_policyC2Ef W 000000000000003b
_ZNSt8__detail21_Hash_node_value_baseISt4pairIKP9ActorNodeiEE9_M_valptrEv W 0000000000000048
_ZNSt8__detail21_Hash_node_value_baseISt4pairIKP9ActorNodeS3_EE9_M_valptrEv W 0000000000000048
_ZNSt8__detail21_Hash_node_value_baseISt4pairIKSsP9ActorNodeEE4_M_vEv W 0000000000000044
_ZNSt8__detail21_Hash_node_value_baseISt4pairIKSsP9ActorNodeEE9_M_valptrEv W 0000000000000048
_ZNSt8__detail21_Hash_node_value_baseISt4pairIKSsP9ActorNodeEEC1Ev W 000000000000003f
_ZNSt8__detail21_Hash_node_value_baseISt4pairIKSsP9ActorNodeEEC2Ev W 000000000000003f
_ZNSt8__detail21_Hash_node_value_baseISt4pairIKSsP9MovieNodeEE9_M_valptrEv W 0000000000000048
_ZNSt8__detail21_Hashtable_ebo_helperILi0ENS_10_Select1stELb1EE6_S_getERS2_ W 0000000000000020
_ZNSt8__detail21_Hashtable_ebo_helperILi0ENS_10_Select1stELb1EE7_S_cgetERKS2_ W 0000000000000020
_ZNSt8__detail21_Hashtable_ebo_helperILi0ESaINS_10_Hash_nodeISt4pairIKP9ActorNodeiELb0EEEELb1EE6_S_getERS9_ W 0000000000000020
_ZNSt8__detail21_Hashtable_ebo_helperILi0ESaINS_10_Hash_nodeISt4pairIKP9ActorNodeiELb0EEEELb1EED1Ev W 000000000000003f
_ZNSt8__detail21_Hashtable_ebo_helperILi0ESaINS_10_Hash_nodeISt4pairIKP9ActorNodeiELb0EEEELb1EED2Ev W 000000000000003f
_ZNSt8__detail21_Hashtable_ebo_helperILi0ESaINS_10_Hash_nodeISt4pairIKP9ActorNodeS4_ELb0EEEELb1EE6_S_getERS9_ W 0000000000000020
_ZNSt8__detail21_Hashtable_ebo_helperILi0ESaINS_10_Hash_nodeISt4pairIKP9ActorNodeS4_ELb0EEEELb1EED1Ev W 000000000000003f
_ZNSt8__detail21_Hashtable_ebo_helperILi0ESaINS_10_Hash_nodeISt4pairIKP9ActorNodeS4_ELb0EEEELb1EED2Ev W 000000000000003f
_ZNSt8__detail21_Hashtable_ebo_helperILi0ESaINS_10_Hash_nodeISt4pairIKSsP9ActorNodeELb1EEEELb1EE6_S_getERS9_ W 0000000000000020
_ZNSt8__detail21_Hashtable_ebo_helperILi0ESaINS_10_Hash_nodeISt4pairIKSsP9ActorNodeELb1EEEELb1EEC1Ev W 000000000000003f
_ZNSt8__detail21_Hashtable_ebo_helperILi0ESaINS_10_Hash_nodeISt4pairIKSsP9ActorNodeELb1EEEELb1EEC2Ev W 000000000000003f
_ZNSt8__detail21_Hashtable_ebo_helperILi0ESaINS_10_Hash_nodeISt4pairIKSsP9ActorNodeELb1EEEELb1EED1Ev W 000000000000003f
_ZNSt8__detail21_Hashtable_ebo_helperILi0ESaINS_10_Hash_nodeISt4pairIKSsP9ActorNodeELb1EEEELb1EED2Ev W 000000000000003f
_ZNSt8__detail21_Hashtable_ebo_helperILi0ESaINS_10_Hash_nodeISt4pairIKSsP9MovieNodeELb1EEEELb1EE6_S_getERS9_ W 0000000000000020
_ZNSt8__detail21_Hashtable_ebo_helperILi0ESaINS_10_Hash_nodeISt4pairIKSsP9MovieNodeELb1EEEELb1EED1Ev W 000000000000003f
_ZNSt8__detail21_Hashtable_ebo_helperILi0ESaINS_10_Hash_nodeISt4pairIKSsP9MovieNodeELb1EEEELb1EED2Ev W 000000000000003f
_ZNSt8__detail21_Hashtable_ebo_helperILi0ESt8equal_toISsELb1EE7_S_cgetERKS3_ W 0000000000000020
_ZNSt8__detail21_Hashtable_ebo_helperILi1ESt4hashISsELb1EE7_S_cgetERKS3_ W 0000000000000020
_ZNSt8__detail21_Hashtable_ebo_helperILi2ENS_18_Mod_range_hashingELb1EE7_S_cgetERKS2_ W 0000000000000020
_ZNSt8__detail7_InsertISsSt4pairIKSsP9ActorNodeESaIS5_ENS_10_Select1stESt8equal_toISsESt4hashISsENS_18_Mod_range_hashingENS_20_Default_ranged_hashENS_20_Prime_rehash_policyENS_17_Hashtable_traitsILb1ELb0ELb1EEELb0EE6insertIS1_ISsS4_EvEES1_INS_14_Node_iteratorIS5_Lb0ELb1EEEbEOT_ W 00000000000000b8
_ZNSt8__detaileqISt4pairIKSsP9ActorNodeELb1EEEbRKNS_19_Node_iterator_baseIT_XT0_EEESA_ W 0000000000000036
_ZNSt8__detailneISt4pairIKSsP9ActorNodeELb1EEEbRKNS_19_Node_iterator_baseIT_XT0_EEESA_ W 0000000000000036
_ZNSt8__detailneISt4pairIKSsP9MovieNodeELb1EEEbRKNS_19_Node_iterator_baseIT_XT0_EEESA_ W 0000000000000036
_ZnwmPv W 0000000000000024
_ZSt10_ConstructISsJRKSsEEvPT_DpOT0_ W 00000000000000ee
_ZSt10_ConstructISsJSsEEvPT_DpOT0_ W 00000000000000a5
_ZSt10_ConstructISt6vectorISsSaISsEEJS2_EEvPT_DpOT0_ W 00000000000000a5
_ZSt10__pop_heapIN9__gnu_cxx17__normal_iteratorIPP9ActorNodeSt6vectorIS3_SaIS3_EEEENS0_5__ops15_Iter_comp_iterI12ActorDisCompEEEvT_SD_SD_RT0_ W 0000000000000182
_ZSt10__pop_heapIN9__gnu_cxx17__normal_iteratorIPP9ActorNodeSt6vectorIS3_SaIS3_EEEENS0_5__ops15_Iter_comp_iterI13ActorNodeCompEEEvT_SD_SD_RT0_ W 0000000000000182
_ZSt11__addressofINSt8__detail10_Hash_nodeISt4pairIKP9ActorNodeiELb0EEEEPT_RS8_ W 0000000000000020
_ZSt11__addressofINSt8__detail10_Hash_nodeISt4pairIKP9ActorNodeS4_ELb0EEEEPT_RS8_ W 0000000000000020
_ZSt11__addressofINSt8__detail10_Hash_nodeISt4pairIKSsP9ActorNodeELb1EEEEPT_RS8_ W 0000000000000020
_ZSt11__addressofINSt8__detail10_Hash_nodeISt4pairIKSsP9MovieNodeELb1EEEEPT_RS8_ W 0000000000000020
_ZSt11__addressofIPNSt8__detail15_Hash_node_baseEEPT_RS3_ W 0000000000000020
_ZSt11__addressofISsEPT_RS0_ W 0000000000000020
_ZSt11__addressofISt4pairISsSsEEPT_RS2_ W 0000000000000020
_ZSt11__addressofISt6vectorISsSaISsEEEPT_RS3_ W 0000000000000020
_ZSt11__push_heapIN9__gnu_cxx17__normal_iteratorIPP9ActorNodeSt6vectorIS3_SaIS3_EEEElS3_NS0_5__ops14_Iter_comp_valI12ActorDisCompEEEvT_T0_SE_T1_RT2_ W 0000000000000245
_ZSt11__push_heapIN9__gnu_cxx17__normal_iteratorIPP9ActorNodeSt6vectorIS3_SaIS3_EEEElS3_NS0_5__ops14_Iter_comp_valI13ActorNodeCompEEEvT_T0_SE_T1_RT2_ W 0000000000000245
_ZSt12__miter_baseIPP9ActorNodeEDTcl12__miter_basecldtfp_4baseEEESt13move_iteratorIT_E W 0000000000000061
_ZSt12__miter_baseIPP9ActorNodeET_S3_ W 0000000000000020
_ZSt12__miter_baseIPPP9ActorNodeET_S4_ W 0000000000000020
_ZSt12__miter_baseIPPSsET_S2_ W 0000000000000020
_ZSt12__miter_baseIPPSt4pairISsSsEET_S4_ W 0000000000000020
_ZSt12__niter_baseIPP9ActorNodeET_S3_ W 0000000000000020
_ZSt12__niter_baseIPPP9ActorNodeET_S4_ W 0000000000000020
_ZSt12__niter_baseIPPSsET_S2_ W 0000000000000020
_ZSt12__niter_baseIPPSt4pairISsSsEET_S4_ W 0000000000000020
_ZSt13__adjust_heapIN9__gnu_cxx17__normal_iteratorIPP9ActorNodeSt6vectorIS3_SaIS3_EEEElS3_NS0_5__ops15_Iter_comp_iterI12ActorDisCompEEEvT_T0_SE_T1_T2_ W 0000000000000392
_ZSt13__adjust_heapIN9__gnu_cxx17__normal_iteratorIPP9ActorNodeSt6vectorIS3_SaIS3_EEEElS3_NS0_5__ops15_Iter_comp_iterI13ActorNodeCompEEEvT_T0_SE_T1_T2_ W 0000000000000392
_ZSt13copy_backwardIPPP9ActorNodeS3_ET0_T_S5_S4_ W 000000000000009a
_ZSt13copy_backwardIPPSsS1_ET0_T_S3_S2_ W 000000000000009a
_ZSt13copy_backwardIPPSt4pairISsSsES3_ET0_T_S5_S4_ W 000000000000009a
_ZSt13__copy_move_aILb0EPPP9ActorNodeS3_ET1_T0_S5_S4_ W 000000000000005b
_ZSt13__copy_move_aILb0EPPSsS1_ET1_T0_S3_S2_ W 000000000000005b
_ZSt13__copy_move_aILb0EPPSt4pairISsSsES3_ET1_T0_S5_S4_ W 000000000000005b
_ZSt13__copy_move_aILb1EPP9ActorNodeS2_ET1_T0_S4_S3_ W 000000000000005b
_ZSt14__copy_move_a2ILb0EPPP9ActorNodeS3_ET1_T0_S5_S4_ W 00000000000000bb
_ZSt14__copy_move_a2ILb0EPPSsS1_ET1_T0_S3_S2_ W 00000000000000bb
_ZSt14__copy_move_a2ILb0EPPSt4pairISsSsES3_ET1_T0_S5_S4_ W 00000000000000bb
_ZSt14__copy_move_a2ILb1EPP9ActorNodeS2_ET1_T0_S4_S3_ W 00000000000000bb
_ZSt16__deque_buf_sizem W 0000000000000054
_ZSt18uninitialized_copyIN9__gnu_cxx17__normal_iteratorIPKSsSt6vectorISsSaISsEEEEPSsET0_T_SA_S9_ W 000000000000005b
_ZSt18uninitialized_copyISt13move_iteratorIPP9ActorNodeES3_ET0_T_S6_S5_ W 000000000000005b
_ZSt18uninitialized_copyISt13move_iteratorIPSsES1_ET0_T_S4_S3_ W 000000000000005b
_ZSt18uninitialized_copyISt13move_iteratorIPSt6vectorISsSaISsEEES4_ET0_T_S7_S6_ W 000000000000005b
_ZSt22__copy_move_backward_aILb0EPPP9ActorNodeS3_ET1_T0_S5_S4_ W 000000000000005b
_ZSt22__copy_move_backward_aILb0EPPSsS1_ET1_T0_S3_S2_ W 000000000000005b
_ZSt22__copy_move_backward_aILb0EPPSt4pairISsSsES3_ET1_T0_S5_S4_ W 000000000000005b
_ZSt22__uninitialized_copy_aIN9__gnu_cxx17__normal_iteratorIPKSsSt6vectorISsSaISsEEEEPSsSsET0_T_SA_S9_RSaIT1_E W 000000000000005b
_ZSt22__uninitialized_copy_aISt13move_iteratorIPP9ActorNodeES3_S2_ET0_T_S6_S5_RSaIT1_E W 000000000000005b
_ZSt22__uninitialized_copy_aISt13move_iteratorIPSsES1_SsET0_T_S4_S3_RSaIT1_E W 000000000000005b
_ZSt22__uninitialized_copy_aISt13move_iteratorIPSt6vectorISsSaISsEEES4_S3_ET0_T_S7_S6_RSaIT1_E W 000000000000005b
_ZSt23__copy_move_backward_a2ILb0EPPP9ActorNodeS3_ET1_T0_S5_S4_ W 00000000000000bb
_ZSt23__copy_move_backward_a2ILb0EPPSsS1_ET1_T0_S3_S2_ W 00000000000000bb
_ZSt23__copy_move_backward_a2ILb0EPPSt4pairISsSsES3_ET1_T0_S5_S4_ W 00000000000000bb
_ZSt32__make_move_if_noexcept_iteratorIP9ActorNodeSt13move_iteratorIPS1_EET0_PT_ W 0000000000000049
_ZSt32__make_move_if_noexcept_iteratorISsSt13move_iteratorIPSsEET0_PT_ W 0000000000000049
_ZSt32__make_move_if_noexcept_iteratorISt6vectorISsSaISsEESt13move_iteratorIPS2_EET0_PT_ W 0000000000000049
_ZSt34__uninitialized_move_if_noexcept_aIPP9ActorNodeS2_SaIS1_EET0_T_S5_S4_RT1_ W 00000000000000a2
_ZSt34__uninitialized_move_if_noexcept_aIPSsS0_SaISsEET0_T_S3_S2_RT1_ W 00000000000000a2
_ZSt34__uninitialized_move_if_noexcept_aIPSt6vectorISsSaISsEES3_SaIS2_EET0_T_S6_S5_RT1_ W 00000000000000a2
_ZSt3getILm0EKSsP9ActorNodeERNSt13tuple_elementIXT_ESt4pairIT0_T1_EE4typeERS7_ W 0000000000000044
_ZSt3maxImERKT_S2_S2_ W 000000000000004f
_ZSt4copyIPPP9ActorNodeS3_ET0_T_S5_S4_ W 000000000000009a
_ZSt4copyIPPSsS1_ET0_T_S3_S2_ W 000000000000009a
_ZSt4copyIPPSt4pairISsSsES3_ET0_T_S5_S4_ W 000000000000009a
_ZSt4copyISt13move_iteratorIPP9ActorNodeES3_ET0_T_S6_S5_ W 000000000000009a
_ZSt4moveIR12ActorDisCompEONSt16remove_referenceIT_E4typeEOS3_ W 0000000000000020
_ZSt4moveIR13ActorNodeCompEONSt16remove_referenceIT_E4typeEOS3_ W 0000000000000020
_ZSt4moveIRN9__gnu_cxx5__ops15_Iter_comp_iterI12ActorDisCompEEEONSt16remove_referenceIT_E4typeEOS7_ W 0000000000000020
_ZSt4moveIRN9__gnu_cxx5__ops15_Iter_comp_iterI13ActorNodeCompEEEONSt16remove_referenceIT_E4typeEOS7_ W 0000000000000020
_ZSt4moveIRP9ActorNodeEONSt16remove_referenceIT_E4typeEOS4_ W 0000000000000020
_ZSt4moveIRPSsEONSt16remove_referenceIT_E4typeEOS3_ W 0000000000000020
_ZSt4moveIRSaISsEEONSt16remove_referenceIT_E4typeEOS3_ W 0000000000000020
_ZSt4moveIRSt4pairISsSsEEONSt16remove_referenceIT_E4typeEOS4_ W 0000000000000020
_ZSt4moveIRSt6vectorISsSaISsEEEONSt16remove_referenceIT_E4typeEOS5_ W 0000000000000020
_ZSt4swapIPSsENSt9enable_ifIXsrSt6__and_IJSt6__not_ISt15__is_tuple_likeIT_EESt21is_move_constructibleIS5_ESt18is_move_assignableIS5_EEE5valueEvE4typeERS5_SF_ W 00000000000000a3
_ZSt7forwardIbEOT_RNSt16remove_referenceIS0_E4typeE W 0000000000000020
_ZSt7forwardINSt8__detail14_Node_iteratorISt4pairIKSsP9ActorNodeELb0ELb1EEEEOT_RNSt16remove_referenceIS8_E4typeE W 0000000000000020
_ZSt7forwardIP9ActorNodeEOT_RNSt16remove_referenceIS2_E4typeE W 0000000000000020
_ZSt7forwardIRKP9ActorNodeEOT_RNSt16remove_referenceIS4_E4typeE W 0000000000000020
_ZSt7forwardIRKSsEOT_RNSt16remove_referenceIS2_E4typeE W 0000000000000020
_ZSt7forwardIRKSt6vectorISsSaISsEEEOT_RNSt16remove_referenceIS5_E4typeE W 0000000000000020
_ZSt7forwardIRP9ActorNodeEOT_RNSt16remove_referenceIS3_E4typeE W 0000000000000020
_ZSt7forwardIRSsEOT_RNSt16remove_referenceIS1_E4typeE W 0000000000000020
_ZSt7forwardIRSt4pairIKSsP9ActorNodeEEOT_RNSt16remove_referenceIS6_E4typeE W 0000000000000020
_ZSt7forwardISsEOT_RNSt16remove_referenceIS0_E4typeE W 0000000000000020
_ZSt7forwardISt4pairISsP9ActorNodeEEOT_RNSt16remove_referenceIS4_E4typeE W 0000000000000020
_ZSt7forwardISt4pairISsSsEEOT_RNSt16remove_referenceIS2_E4typeE W 0000000000000020
_ZSt7forwardISt6vectorISsSaISsEEEOT_RNSt16remove_referenceIS3_E4typeE W 0000000000000020
_ZSt8_DestroyIP4EdgeEvT_S2_ W 000000000000004a
_ZSt8_DestroyIP4EdgeS0_EvT_S2_RSaIT0_E W 000000000000004e
_ZSt8_DestroyIPP9ActorNodeEvT_S3_ W 000000000000004a
_ZSt8_DestroyIPP9ActorNodeS1_EvT_S3_RSaIT0_E W 000000000000004e
_ZSt8_DestroyIPSsEvT_S1_ W 000000000000004a
_ZSt8_DestroyIPSsSsEvT_S1_RSaIT0_E W 000000000000004e
_ZSt8_DestroyIPSt4pairISsSsEEvT_S3_ W 000000000000004a
_ZSt8_DestroyIPSt4pairISsSsES1_EvT_S3_RSaIT0_E W 000000000000004e
_ZSt8_DestroyIPSt6vectorISsSaISsEEEvT_S4_ W 000000000000004a
_ZSt8_DestroyIPSt6vectorISsSaISsEES2_EvT_S4_RSaIT0_E W 000000000000004e
_ZSt8_DestroyISsEvPT_ W 000000000000003f
_ZSt8_DestroyISt4pairISsSsEEvPT_ W 000000000000003f
_ZSt8_DestroyISt6vectorISsSaISsEEEvPT_ W 000000000000003f
_ZSt8pop_heapIN9__gnu_cxx17__normal_iteratorIPP9ActorNodeSt6vectorIS3_SaIS3_EEEE12ActorDisCompEvT_SA_T0_ W 00000000000000d4
_ZSt8pop_heapIN9__gnu_cxx17__normal_iteratorIPP9ActorNodeSt6vectorIS3_SaIS3_EEEE13ActorNodeCompEvT_SA_T0_ W 00000000000000d4
_ZSt9addressofINSt8__detail10_Hash_nodeISt4pairIKP9ActorNodeiELb0EEEEPT_RS8_ W 0000000000000044
_ZSt9addressofINSt8__detail10_Hash_nodeISt4pairIKP9ActorNodeS4_ELb0EEEEPT_RS8_ W 0000000000000044
_ZSt9addressofINSt8__detail10_Hash_nodeISt4pairIKSsP9ActorNodeELb1EEEEPT_RS8_ W 0000000000000044
_ZSt9addressofINSt8__detail10_Hash_nodeISt4pairIKSsP9MovieNodeELb1EEEEPT_RS8_ W 0000000000000044
_ZSt9addressofIPNSt8__detail15_Hash_node_baseEEPT_RS3_ W 0000000000000044
_ZSt9make_pairINSt8__detail14_Node_iteratorISt4pairIKSsP9ActorNodeELb0ELb1EEEbES2_INSt17__decay_and_stripIT_E6__typeENS8_IT0_E6__typeEEOS9_OSC_ W 0000000000000098
_ZSt9make_pairIRSsRP9ActorNodeESt4pairINSt17__decay_and_stripIT_E6__typeENS5_IT0_E6__typeEEOS6_OS9_ W 0000000000000098
_ZSt9make_pairIRSsS0_ESt4pairINSt17__decay_and_stripIT_E6__typeENS2_IT0_E6__typeEEOS3_OS6_ W 0000000000000098
_ZSt9push_heapIN9__gnu_cxx17__normal_iteratorIPP9ActorNodeSt6vectorIS3_SaIS3_EEEE12ActorDisCompEvT_SA_T0_ W 0000000000000176
_ZSt9push_heapIN9__gnu_cxx17__normal_iteratorIPP9ActorNodeSt6vectorIS3_SaIS3_EEEE13ActorNodeCompEvT_SA_T0_ W 0000000000000176
_ZSteqIcEN9__gnu_cxx11__enable_ifIXsrSt9__is_charIT_E7__valueEbE6__typeERKSbIS3_St11char_traitsIS3_ESaIS3_EESC_ W 0000000000000132
_ZSteqIP9ActorNodeRS1_PS1_EbRKSt15_Deque_iteratorIT_T0_T1_ESA_ W 0000000000000036
_ZSteqIPSsEbRKSt13move_iteratorIT_ES5_ W 0000000000000071
_ZSteqIPSt6vectorISsSaISsEEEbRKSt13move_iteratorIT_ES8_ W 0000000000000071
_ZSteqISsRSsPSsEbRKSt15_Deque_iteratorIT_T0_T1_ES8_ W 0000000000000036
_ZSteqISt4pairISsSsERS1_PS1_EbRKSt15_Deque_iteratorIT_T0_T1_ESA_ W 0000000000000036
_ZStgtIcSt11char_traitsIcESaIcEEbRKSbIT_T0_T1_ES8_ W 0000000000000050
_ZStltIcSt11char_traitsIcESaIcEEbRKSbIT_T0_T1_ES8_ W 0000000000000050
_ZStneIPSsEbRKSt13move_iteratorIT_ES5_ W 0000000000000050
_ZStneIPSt6vectorISsSaISsEEEbRKSt13move_iteratorIT_ES8_ W 0000000000000050
