 0x000000000000000e (SONAME)             Library soname: [libDisjointSet.so]
__bss_start B
_edata D
_end B
_fini T
__gcov_error_file B 0000000000000008
__gcov_master D 0000000000000010
__gcov_sort_n_vals T 00000000000000b7
__gcov_var B 0000000000001028
_init T
_ZN11DisjointSet15pathCompressionERSt6vectorIP9ActorNodeSaIS2_EERS2_R5Actor T 0000000000000180
_ZN11DisjointSet3MSTER5ActorRSt6vectorI4EdgeSaIS3_EE T 00000000000002aa
_ZN11DisjointSet4findERP9ActorNodeR5Actor T 00000000000002b2
_ZN11DisjointSet5UnionERP9ActorNodeS2_R5Actor T 00000000000004aa
_ZN9__gnu_cxx13new_allocatorI4EdgeE10deallocateEPS1_m W 0000000000000047
_ZN9__gnu_cxx13new_allocatorI4EdgeE7destroyIS1_EEvPT_ W 0000000000000021
_ZN9__gnu_cxx13new_allocatorI4EdgeE8allocateEmPKv W 0000000000000090
_ZN9__gnu_cxx13new_allocatorI4EdgeE9constructIS1_JRKS1_EEEvPT_DpOT0_ W 00000000000000ad
_ZN9__gnu_cxx13new_allocatorIP9ActorNodeE10deallocateEPS2_m W 0000000000000047
_ZN9__gnu_cxx13new_allocatorIP9ActorNodeE7destroyIS2_EEvPT_ W 0000000000000021
_ZN9__gnu_cxx13new_allocatorIP9ActorNodeE8allocateEmPKv W 0000000000000090
_ZN9__gnu_cxx13new_allocatorIP9ActorNodeE9constructIS2_JRKS2_EEEvPT_DpOT0_ W 0000000000000092
_ZN9__gnu_cxx13new_allocatorIP9ActorNodeEC1Ev W 000000000000001d
_ZN9__gnu_cxx13new_allocatorIP9ActorNodeEC2Ev W 000000000000001d
_ZN9__gnu_cxx13new_allocatorIP9ActorNodeED1Ev W 000000000000001d
_ZN9__gnu_cxx13new_allocatorIP9ActorNodeED2Ev W 000000000000001d
_ZN9__gnu_cxx16__aligned_bufferISt4pairIKP9ActorNodeiEE6_M_ptrEv W 0000000000000044
_ZN9__gnu_cxx16__aligned_bufferISt4pairIKP9ActorNodeiEE7_M_addrEv W 0000000000000020
_ZN9__gnu_cxx16__aligned_bufferISt4pairIKP9ActorNodeS3_EE6_M_ptrEv W 0000000000000044
_ZN9__gnu_cxx16__aligned_bufferISt4pairIKP9ActorNodeS3_EE7_M_addrEv W 0000000000000020
_ZN9__gnu_cxx17__normal_iteratorIP4EdgeSt6vectorIS1_SaIS1_EEEC1ERKS2_ W 000000000000002f
_ZN9__gnu_cxx17__normal_iteratorIP4EdgeSt6vectorIS1_SaIS1_EEEC2ERKS2_ W 000000000000002f
_ZN9__gnu_cxx17__normal_iteratorIP4EdgeSt6vectorIS1_SaIS1_EEEmmEv W 0000000000000032
_ZN9__gnu_cxx17__normal_iteratorIPK4EdgeSt6vectorIS1_SaIS1_EEEC1ERKS3_ W 000000000000002f
_ZN9__gnu_cxx17__normal_iteratorIPK4EdgeSt6vectorIS1_SaIS1_EEEC2ERKS3_ W 000000000000002f
_ZN9__gnu_cxx17__normal_iteratorIPP9ActorNodeSt6vectorIS2_SaIS2_EEEC1ERKS3_ W 000000000000002f
_ZN9__gnu_cxx17__normal_iteratorIPP9ActorNodeSt6vectorIS2_SaIS2_EEEC2ERKS3_ W 000000000000002f
_ZN9__gnu_cxx17__normal_iteratorIPP9ActorNodeSt6vectorIS2_SaIS2_EEEppEv W 0000000000000032
_ZN9__gnu_cxx5__ops14_Iter_comp_valI8EdgeCompEC1EONS0_15_Iter_comp_iterIS2_EE W 0000000000000043
_ZN9__gnu_cxx5__ops14_Iter_comp_valI8EdgeCompEC2EONS0_15_Iter_comp_iterIS2_EE W 0000000000000043
_ZN9__gnu_cxx5__ops14_Iter_comp_valI8EdgeCompEclINS_17__normal_iteratorIP4EdgeSt6vectorIS6_SaIS6_EEEES6_EEbT_RT0_ W 000000000000007b
_ZN9__gnu_cxx5__ops15_Iter_comp_iterI8EdgeCompEclINS_17__normal_iteratorIP4EdgeSt6vectorIS6_SaIS6_EEEESB_EEbT_T0_ W 000000000000009c
_ZN9__gnu_cxxeqIPK4EdgeSt6vectorIS1_SaIS1_EEEEbRKNS_17__normal_iteratorIT_T0_EESC_ W 0000000000000077
_ZN9__gnu_cxxmiIP4EdgeSt6vectorIS1_SaIS1_EEEENS_17__normal_iteratorIT_T0_E15difference_typeERKS9_SC_ W 0000000000000082
_ZN9__gnu_cxxmiIPP9ActorNodeSt6vectorIS2_SaIS2_EEEENS_17__normal_iteratorIT_T0_E15difference_typeERKSA_SD_ W 0000000000000082
_ZN9__gnu_cxxneIPP9ActorNodeSt6vectorIS2_SaIS2_EEEEbRKNS_17__normal_iteratorIT_T0_EESC_ W 0000000000000077
_ZNK8EdgeCompclER4EdgeS1_ W 0000000000000039
_ZNK9__gnu_cxx13new_allocatorI4EdgeE8max_sizeEv W 0000000000000026
_ZNK9__gnu_cxx13new_allocatorIP9ActorNodeE8max_sizeEv W 0000000000000026
_ZNK9__gnu_cxx16__aligned_bufferISt4pairIKP9ActorNodeiEE6_M_ptrEv W 0000000000000044
_ZNK9__gnu_cxx16__aligned_bufferISt4pairIKP9ActorNodeiEE7_M_addrEv W 0000000000000020
_ZNK9__gnu_cxx16__aligned_bufferISt4pairIKP9ActorNodeS3_EE6_M_ptrEv W 0000000000000044
_ZNK9__gnu_cxx16__aligned_bufferISt4pairIKP9ActorNodeS3_EE7_M_addrEv W 0000000000000020
_ZNK9__gnu_cxx17__normal_iteratorIP4EdgeSt6vectorIS1_SaIS1_EEE4baseEv W 0000000000000020
_ZNK9__gnu_cxx17__normal_iteratorIP4EdgeSt6vectorIS1_SaIS1_EEEdeEv W 0000000000000023
_ZNK9__gnu_cxx17__normal_iteratorIP4EdgeSt6vectorIS1_SaIS1_EEEplEl W 0000000000000063
_ZNK9__gnu_cxx17__normal_iteratorIPK4EdgeSt6vectorIS1_SaIS1_EEE4baseEv W 0000000000000020
_ZNK9__gnu_cxx17__normal_iteratorIPK4EdgeSt6vectorIS1_SaIS1_EEEdeEv W 0000000000000023
_ZNK9__gnu_cxx17__normal_iteratorIPP9ActorNodeSt6vectorIS2_SaIS2_EEE4baseEv W 0000000000000020
_ZNK9__gnu_cxx17__normal_iteratorIPP9ActorNodeSt6vectorIS2_SaIS2_EEEdeEv W 0000000000000023
_ZNKSt10_HashtableIP9ActorNodeSt4pairIKS1_iESaIS4_ENSt8__detail10_Select1stESt8equal_toIS1_ESt4hashIS1_ENS6_18_Mod_range_hashingENS6_20_Default_ranged_hashENS6_20_Prime_rehash_policyENS6_17_Hashtable_traitsILb0ELb0ELb1EEEE12_M_find_nodeEmRS3_m W 0000000000000081
_ZNKSt10_HashtableIP9ActorNodeSt4pairIKS1_iESaIS4_ENSt8__detail10_Select1stESt8equal_toIS1_ESt4hashIS1_ENS6_18_Mod_range_hashingENS6_20_Default_ranged_hashENS6_20_Prime_rehash_policyENS6_17_Hashtable_traitsILb0ELb0ELb1EEEE15_M_bucket_indexEPNS6_10_Hash_nodeIS4_Lb0EEE W 0000000000000057
_ZNKSt10_HashtableIP9ActorNodeSt4pairIKS1_iESaIS4_ENSt8__detail10_Select1stESt8equal_toIS1_ESt4hashIS1_ENS6_18_Mod_range_hashingENS6_20_Default_ranged_hashENS6_20_Prime_rehash_policyENS6_17_Hashtable_traitsILb0ELb0ELb1EEEE15_M_bucket_indexERS3_m W 000000000000005c
_ZNKSt10_HashtableIP9ActorNodeSt4pairIKS1_iESaIS4_ENSt8__detail10_Select1stESt8equal_toIS1_ESt4hashIS1_ENS6_18_Mod_range_hashingENS6_20_Default_ranged_hashENS6_20_Prime_rehash_policyENS6_17_Hashtable_traitsILb0ELb0ELb1EEEE19_M_find_before_nodeEmRS3_m W 000000000000018f
_ZNKSt10_HashtableIP9ActorNodeSt4pairIKS1_S1_ESaIS4_ENSt8__detail10_Select1stESt8equal_toIS1_ESt4hashIS1_ENS6_18_Mod_range_hashingENS6_20_Default_ranged_hashENS6_20_Prime_rehash_policyENS6_17_Hashtable_traitsILb0ELb0ELb1EEEE12_M_find_nodeEmRS3_m W 0000000000000081
_ZNKSt10_HashtableIP9ActorNodeSt4pairIKS1_S1_ESaIS4_ENSt8__detail10_Select1stESt8equal_toIS1_ESt4hashIS1_ENS6_18_Mod_range_hashingENS6_20_Default_ranged_hashENS6_20_Prime_rehash_policyENS6_17_Hashtable_traitsILb0ELb0ELb1EEEE15_M_bucket_indexEPNS6_10_Hash_nodeIS4_Lb0EEE W 0000000000000057
_ZNKSt10_HashtableIP9ActorNodeSt4pairIKS1_S1_ESaIS4_ENSt8__detail10_Select1stESt8equal_toIS1_ESt4hashIS1_ENS6_18_Mod_range_hashingENS6_20_Default_ranged_hashENS6_20_Prime_rehash_policyENS6_17_Hashtable_traitsILb0ELb0ELb1EEEE15_M_bucket_indexERS3_m W 000000000000005c
_ZNKSt10_HashtableIP9ActorNodeSt4pairIKS1_S1_ESaIS4_ENSt8__detail10_Select1stESt8equal_toIS1_ESt4hashIS1_ENS6_18_Mod_range_hashingENS6_20_Default_ranged_hashENS6_20_Prime_rehash_policyENS6_17_Hashtable_traitsILb0ELb0ELb1EEEE19_M_find_before_nodeEmRS3_m W 000000000000018f
_ZNKSt10_HashtableISsSt4pairIKSsP9ActorNodeESaIS4_ENSt8__detail10_Select1stESt8equal_toISsESt4hashISsENS6_18_Mod_range_hashingENS6_20_Default_ranged_hashENS6_20_Prime_rehash_policyENS6_17_Hashtable_traitsILb1ELb0ELb1EEEE4sizeEv W 0000000000000024
_ZNKSt12_Vector_baseI4EdgeSaIS0_EE19_M_get_Tp_allocatorEv W 0000000000000020
_ZNKSt12_Vector_baseIP9ActorNodeSaIS1_EE19_M_get_Tp_allocatorEv W 0000000000000020
_ZNKSt13move_iteratorIP4EdgeE4baseEv W 0000000000000023
_ZNKSt13move_iteratorIP4EdgeEdeEv W 0000000000000023
_ZNKSt13move_iteratorIPP9ActorNodeE4baseEv W 0000000000000023
_ZNKSt13unordered_mapISsP9ActorNodeSt4hashISsESt8equal_toISsESaISt4pairIKSsS1_EEE4sizeEv W 0000000000000044
_ZNKSt14priority_queueI4EdgeSt6vectorIS0_SaIS0_EE8EdgeCompE3topEv W 0000000000000044
_ZNKSt14priority_queueI4EdgeSt6vectorIS0_SaIS0_EE8EdgeCompE5emptyEv W 0000000000000042
_ZNKSt4hashIP9ActorNodeEclES1_ W 0000000000000024
_ZNKSt6vectorI4EdgeSaIS0_EE12_M_check_lenEmPKc W 00000000000001ae
_ZNKSt6vectorI4EdgeSaIS0_EE3endEv W 0000000000000055
_ZNKSt6vectorI4EdgeSaIS0_EE4sizeEv W 000000000000003e
_ZNKSt6vectorI4EdgeSaIS0_EE5beginEv W 0000000000000054
_ZNKSt6vectorI4EdgeSaIS0_EE5emptyEv W 000000000000008d
_ZNKSt6vectorI4EdgeSaIS0_EE5frontEv W 0000000000000066
_ZNKSt6vectorI4EdgeSaIS0_EE8max_sizeEv W 0000000000000061
_ZNKSt6vectorIP9ActorNodeSaIS1_EE12_M_check_lenEmPKc W 00000000000001ae
_ZNKSt6vectorIP9ActorNodeSaIS1_EE4sizeEv W 000000000000003e
_ZNKSt6vectorIP9ActorNodeSaIS1_EE8max_sizeEv W 0000000000000061
_ZNKSt8__detail10_Hash_nodeISt4pairIKP9ActorNodeiELb0EE7_M_nextEv W 0000000000000023
_ZNKSt8__detail10_Hash_nodeISt4pairIKP9ActorNodeS3_ELb0EE7_M_nextEv W 0000000000000023
_ZNKSt8__detail10_Select1stclIRKSt4pairIKP9ActorNodeiEEEDTcl3getILi0EEcl7forwardIT_Efp_EEEOS9_ W 0000000000000065
_ZNKSt8__detail10_Select1stclIRKSt4pairIKP9ActorNodeS4_EEEDTcl3getILi0EEcl7forwardIT_Efp_EEEOS9_ W 0000000000000065
_ZNKSt8__detail10_Select1stclIRSt4pairIKP9ActorNodeiEEEDTcl3getILi0EEcl7forwardIT_Efp_EEEOS8_ W 0000000000000065
_ZNKSt8__detail10_Select1stclIRSt4pairIKP9ActorNodeS4_EEEDTcl3getILi0EEcl7forwardIT_Efp_EEEOS8_ W 0000000000000065
_ZNKSt8__detail14_Node_iteratorISt4pairIKP9ActorNodeiELb0ELb0EEptEv W 0000000000000047
_ZNKSt8__detail14_Node_iteratorISt4pairIKP9ActorNodeS3_ELb0ELb0EEptEv W 0000000000000047
_ZNKSt8__detail15_Hash_code_baseIP9ActorNodeSt4pairIKS2_iENS_10_Select1stESt4hashIS2_ENS_18_Mod_range_hashingENS_20_Default_ranged_hashELb0EE10_M_extractEv W 0000000000000044
_ZNKSt8__detail15_Hash_code_baseIP9ActorNodeSt4pairIKS2_iENS_10_Select1stESt4hashIS2_ENS_18_Mod_range_hashingENS_20_Default_ranged_hashELb0EE12_M_hash_codeERS4_ W 000000000000006f
_ZNKSt8__detail15_Hash_code_baseIP9ActorNodeSt4pairIKS2_iENS_10_Select1stESt4hashIS2_ENS_18_Mod_range_hashingENS_20_Default_ranged_hashELb0EE15_M_bucket_indexEPKNS_10_Hash_nodeIS5_Lb0EEEm W 0000000000000127
_ZNKSt8__detail15_Hash_code_baseIP9ActorNodeSt4pairIKS2_iENS_10_Select1stESt4hashIS2_ENS_18_Mod_range_hashingENS_20_Default_ranged_hashELb0EE15_M_bucket_indexERS4_mm W 0000000000000078
_ZNKSt8__detail15_Hash_code_baseIP9ActorNodeSt4pairIKS2_iENS_10_Select1stESt4hashIS2_ENS_18_Mod_range_hashingENS_20_Default_ranged_hashELb0EE5_M_h1Ev W 0000000000000044
_ZNKSt8__detail15_Hash_code_baseIP9ActorNodeSt4pairIKS2_iENS_10_Select1stESt4hashIS2_ENS_18_Mod_range_hashingENS_20_Default_ranged_hashELb0EE5_M_h2Ev W 0000000000000044
_ZNKSt8__detail15_Hash_code_baseIP9ActorNodeSt4pairIKS2_S2_ENS_10_Select1stESt4hashIS2_ENS_18_Mod_range_hashingENS_20_Default_ranged_hashELb0EE10_M_extractEv W 0000000000000044
_ZNKSt8__detail15_Hash_code_baseIP9ActorNodeSt4pairIKS2_S2_ENS_10_Select1stESt4hashIS2_ENS_18_Mod_range_hashingENS_20_Default_ranged_hashELb0EE12_M_hash_codeERS4_ W 000000000000006f
_ZNKSt8__detail15_Hash_code_baseIP9ActorNodeSt4pairIKS2_S2_ENS_10_Select1stESt4hashIS2_ENS_18_Mod_range_hashingENS_20_Default_ranged_hashELb0EE15_M_bucket_indexEPKNS_10_Hash_nodeIS5_Lb0EEEm W 0000000000000127
_ZNKSt8__detail15_Hash_code_baseIP9ActorNodeSt4pairIKS2_S2_ENS_10_Select1stESt4hashIS2_ENS_18_Mod_range_hashingENS_20_Default_ranged_hashELb0EE15_M_bucket_indexERS4_mm W 0000000000000078
_ZNKSt8__detail15_Hash_code_baseIP9ActorNodeSt4pairIKS2_S2_ENS_10_Select1stESt4hashIS2_ENS_18_Mod_range_hashingENS_20_Default_ranged_hashELb0EE5_M_h1Ev W 0000000000000044
_ZNKSt8__detail15_Hash_code_baseIP9ActorNodeSt4pairIKS2_S2_ENS_10_Select1stESt4hashIS2_ENS_18_Mod_range_hashingENS_20_Default_ranged_hashELb0EE5_M_h2Ev W 0000000000000044
_ZNKSt8__detail15_Hashtable_baseIP9ActorNodeSt4pairIKS2_iENS_10_Select1stESt8equal_toIS2_ESt4hashIS2_ENS_18_Mod_range_hashingENS_20_Default_ranged_hashENS_17_Hashtable_traitsILb0ELb0ELb1EEEE5_M_eqEv W 0000000000000044
_ZNKSt8__detail15_Hashtable_baseIP9ActorNodeSt4pairIKS2_iENS_10_Select1stESt8equal_toIS2_ESt4hashIS2_ENS_18_Mod_range_hashingENS_20_Default_ranged_hashENS_17_Hashtable_traitsILb0ELb0ELb1EEEE9_M_equalsERS4_mPNS_10_Hash_nodeIS5_Lb0EEE W 00000000000000a7
_ZNKSt8__detail15_Hashtable_baseIP9ActorNodeSt4pairIKS2_S2_ENS_10_Select1stESt8equal_toIS2_ESt4hashIS2_ENS_18_Mod_range_hashingENS_20_Default_ranged_hashENS_17_Hashtable_traitsILb0ELb0ELb1EEEE5_M_eqEv W 0000000000000044
_ZNKSt8__detail15_Hashtable_baseIP9ActorNodeSt4pairIKS2_S2_ENS_10_Select1stESt8equal_toIS2_ESt4hashIS2_ENS_18_Mod_range_hashingENS_20_Default_ranged_hashENS_17_Hashtable_traitsILb0ELb0ELb1EEEE9_M_equalsERS4_mPNS_10_Hash_nodeIS5_Lb0EEE W 00000000000000a7
_ZNKSt8__detail18_Mod_range_hashingclEmm W 0000000000000034
_ZNKSt8__detail21_Hash_node_value_baseISt4pairIKP9ActorNodeiEE4_M_vEv W 0000000000000044
_ZNKSt8__detail21_Hash_node_value_baseISt4pairIKP9ActorNodeiEE9_M_valptrEv W 0000000000000048
_ZNKSt8__detail21_Hash_node_value_baseISt4pairIKP9ActorNodeS3_EE4_M_vEv W 0000000000000044
_ZNKSt8__detail21_Hash_node_value_baseISt4pairIKP9ActorNodeS3_EE9_M_valptrEv W 0000000000000048
_ZNKSt8equal_toIP9ActorNodeEclERKS1_S4_ W 000000000000003a
_ZNSaIP9ActorNodeEC1Ev W 000000000000003f
_ZNSaIP9ActorNodeEC2Ev W 000000000000003f
_ZNSaIP9ActorNodeED1Ev W 000000000000003f
_ZNSaIP9ActorNodeED2Ev W 000000000000003f
_ZNSt10_HashtableIP9ActorNodeSt4pairIKS1_iESaIS4_ENSt8__detail10_Select1stESt8equal_toIS1_ESt4hashIS1_ENS6_18_Mod_range_hashingENS6_20_Default_ranged_hashENS6_20_Prime_rehash_policyENS6_17_Hashtable_traitsILb0ELb0ELb1EEEE3endEv W 0000000000000047
_ZNSt10_HashtableIP9ActorNodeSt4pairIKS1_iESaIS4_ENSt8__detail10_Select1stESt8equal_toIS1_ESt4hashIS1_ENS6_18_Mod_range_hashingENS6_20_Default_ranged_hashENS6_20_Prime_rehash_policyENS6_17_Hashtable_traitsILb0ELb0ELb1EEEE4findERS3_ W 0000000000000114
_ZNSt10_HashtableIP9ActorNodeSt4pairIKS1_S1_ESaIS4_ENSt8__detail10_Select1stESt8equal_toIS1_ESt4hashIS1_ENS6_18_Mod_range_hashingENS6_20_Default_ranged_hashENS6_20_Prime_rehash_policyENS6_17_Hashtable_traitsILb0ELb0ELb1EEEE3endEv W 0000000000000047
_ZNSt10_HashtableIP9ActorNodeSt4pairIKS1_S1_ESaIS4_ENSt8__detail10_Select1stESt8equal_toIS1_ESt4hashIS1_ENS6_18_Mod_range_hashingENS6_20_Default_ranged_hashENS6_20_Prime_rehash_policyENS6_17_Hashtable_traitsILb0ELb0ELb1EEEE4findERS3_ W 0000000000000114
_ZNSt10__pair_getILm0EE11__const_getIKP9ActorNodeiEERKT_RKSt4pairIS5_T0_E W 0000000000000020
_ZNSt10__pair_getILm0EE11__const_getIKP9ActorNodeS3_EERKT_RKSt4pairIS5_T0_E W 0000000000000020
_ZNSt10__pair_getILm0EE5__getIKP9ActorNodeiEERT_RSt4pairIS5_T0_E W 0000000000000020
_ZNSt10__pair_getILm0EE5__getIKP9ActorNodeS3_EERT_RSt4pairIS5_T0_E W 0000000000000020
_ZNSt11__copy_moveILb1ELb1ESt26random_access_iterator_tagE8__copy_mIP9ActorNodeEEPT_PKS5_S8_S6_ W 000000000000008c
_ZNSt12_Destroy_auxILb1EE9__destroyIP4EdgeEEvT_S4_ W 0000000000000021
_ZNSt12_Destroy_auxILb1EE9__destroyIPP9ActorNodeEEvT_S5_ W 0000000000000021
_ZNSt12_Vector_baseI4EdgeSaIS0_EE11_M_allocateEm W 0000000000000070
_ZNSt12_Vector_baseI4EdgeSaIS0_EE13_M_deallocateEPS0_m W 000000000000006b
_ZNSt12_Vector_baseI4EdgeSaIS0_EE19_M_get_Tp_allocatorEv W 0000000000000020
_ZNSt12_Vector_baseIP9ActorNodeSaIS1_EE11_M_allocateEm W 0000000000000070
_ZNSt12_Vector_baseIP9ActorNodeSaIS1_EE12_Vector_implC1Ev W 0000000000000062
_ZNSt12_Vector_baseIP9ActorNodeSaIS1_EE12_Vector_implC2Ev W 0000000000000062
_ZNSt12_Vector_baseIP9ActorNodeSaIS1_EE12_Vector_implD1Ev W 000000000000003f
_ZNSt12_Vector_baseIP9ActorNodeSaIS1_EE12_Vector_implD2Ev W 000000000000003f
_ZNSt12_Vector_baseIP9ActorNodeSaIS1_EE13_M_deallocateEPS1_m W 000000000000006b
_ZNSt12_Vector_baseIP9ActorNodeSaIS1_EE19_M_get_Tp_allocatorEv W 0000000000000020
_ZNSt12_Vector_baseIP9ActorNodeSaIS1_EEC1Ev W 000000000000003f
_ZNSt12_Vector_baseIP9ActorNodeSaIS1_EEC2Ev W 000000000000003f
_ZNSt12_Vector_baseIP9ActorNodeSaIS1_EED1Ev W 0000000000000086
_ZNSt12_Vector_baseIP9ActorNodeSaIS1_EED2Ev W 0000000000000086
_ZNSt13move_iteratorIP4EdgeEC1ES1_ W 000000000000002c
_ZNSt13move_iteratorIP4EdgeEC2ES1_ W 000000000000002c
_ZNSt13move_iteratorIP4EdgeEppEv W 0000000000000032
_ZNSt13move_iteratorIPP9ActorNodeEC1ES2_ W 000000000000002c
_ZNSt13move_iteratorIPP9ActorNodeEC2ES2_ W 000000000000002c
_ZNSt13unordered_mapIP9ActorNodeiSt4hashIS1_ESt8equal_toIS1_ESaISt4pairIKS1_iEEE4findERS7_ W 000000000000004f
_ZNSt13unordered_mapIP9ActorNodeS1_St4hashIS1_ESt8equal_toIS1_ESaISt4pairIKS1_S1_EEE3endEv W 0000000000000044
_ZNSt13unordered_mapIP9ActorNodeS1_St4hashIS1_ESt8equal_toIS1_ESaISt4pairIKS1_S1_EEE4findERS7_ W 000000000000004f
_ZNSt14priority_queueI4EdgeSt6vectorIS0_SaIS0_EE8EdgeCompE3popEv W 00000000000000b2
_ZNSt16allocator_traitsISaI4EdgeEE10deallocateERS1_PS0_m W 0000000000000052
_ZNSt16allocator_traitsISaI4EdgeEE7destroyIS0_EEvRS1_PT_ W 000000000000004a
_ZNSt16allocator_traitsISaI4EdgeEE8allocateERS1_m W 0000000000000054
_ZNSt16allocator_traitsISaI4EdgeEE8max_sizeERKS1_ W 0000000000000044
_ZNSt16allocator_traitsISaI4EdgeEE9constructIS0_JRKS0_EEEvRS1_PT_DpOT0_ W 000000000000006f
_ZNSt16allocator_traitsISaIP9ActorNodeEE10deallocateERS2_PS1_m W 0000000000000052
_ZNSt16allocator_traitsISaIP9ActorNodeEE7destroyIS1_EEvRS2_PT_ W 000000000000004a
_ZNSt16allocator_traitsISaIP9ActorNodeEE8allocateERS2_m W 0000000000000054
_ZNSt16allocator_traitsISaIP9ActorNodeEE8max_sizeERKS2_ W 0000000000000044
_ZNSt16allocator_traitsISaIP9ActorNodeEE9constructIS1_JRKS1_EEEvRS2_PT_DpOT0_ W 000000000000006f
_ZNSt20__uninitialized_copyILb0EE13__uninit_copyISt13move_iteratorIP4EdgeES4_EET0_T_S7_S6_ W 0000000000000198
_ZNSt20__uninitialized_copyILb1EE13__uninit_copyISt13move_iteratorIPP9ActorNodeES5_EET0_T_S8_S7_ W 0000000000000057
_ZNSt6vectorI4EdgeSaIS0_EE17_M_realloc_insertIJRKS0_EEEvN9__gnu_cxx17__normal_iteratorIPS0_S2_EEDpOT_ W 000000000000049a
_ZNSt6vectorI4EdgeSaIS0_EE3endEv W 000000000000004d
_ZNSt6vectorI4EdgeSaIS0_EE5beginEv W 0000000000000049
_ZNSt6vectorI4EdgeSaIS0_EE8pop_backEv W 000000000000005e
_ZNSt6vectorI4EdgeSaIS0_EE9push_backERKS0_ W 00000000000000d5
_ZNSt6vectorIP9ActorNodeSaIS1_EE17_M_realloc_insertIJRKS1_EEEvN9__gnu_cxx17__normal_iteratorIPS1_S3_EEDpOT_ W 000000000000049d
_ZNSt6vectorIP9ActorNodeSaIS1_EE3endEv W 000000000000004d
_ZNSt6vectorIP9ActorNodeSaIS1_EE5beginEv W 0000000000000049
_ZNSt6vectorIP9ActorNodeSaIS1_EE9push_backERKS1_ W 00000000000000d5
_ZNSt6vectorIP9ActorNodeSaIS1_EEC1Ev W 000000000000003f
_ZNSt6vectorIP9ActorNodeSaIS1_EEC2Ev W 000000000000003f
_ZNSt6vectorIP9ActorNodeSaIS1_EED1Ev W 000000000000008c
_ZNSt6vectorIP9ActorNodeSaIS1_EED2Ev W 000000000000008c
_ZNSt8__detail13_Equal_helperIP9ActorNodeSt4pairIKS2_iENS_10_Select1stESt8equal_toIS2_EmLb0EE9_S_equalsERKS8_RKS6_RS4_mPNS_10_Hash_nodeIS5_Lb0EEE W 000000000000009e
_ZNSt8__detail13_Equal_helperIP9ActorNodeSt4pairIKS2_S2_ENS_10_Select1stESt8equal_toIS2_EmLb0EE9_S_equalsERKS8_RKS6_RS4_mPNS_10_Hash_nodeIS5_Lb0EEE W 000000000000009e
_ZNSt8__detail14_Node_iteratorISt4pairIKP9ActorNodeiELb0ELb0EEC1EPNS_10_Hash_nodeIS5_Lb0EEE W 000000000000004a
_ZNSt8__detail14_Node_iteratorISt4pairIKP9ActorNodeiELb0ELb0EEC2EPNS_10_Hash_nodeIS5_Lb0EEE W 000000000000004a
_ZNSt8__detail14_Node_iteratorISt4pairIKP9ActorNodeS3_ELb0ELb0EEC1EPNS_10_Hash_nodeIS5_Lb0EEE W 000000000000004a
_ZNSt8__detail14_Node_iteratorISt4pairIKP9ActorNodeS3_ELb0ELb0EEC2EPNS_10_Hash_nodeIS5_Lb0EEE W 000000000000004a
_ZNSt8__detail19_Node_iterator_baseISt4pairIKP9ActorNodeiELb0EEC1EPNS_10_Hash_nodeIS5_Lb0EEE W 000000000000002c
_ZNSt8__detail19_Node_iterator_baseISt4pairIKP9ActorNodeiELb0EEC2EPNS_10_Hash_nodeIS5_Lb0EEE W 000000000000002c
_ZNSt8__detail19_Node_iterator_baseISt4pairIKP9ActorNodeS3_ELb0EEC1EPNS_10_Hash_nodeIS5_Lb0EEE W 000000000000002c
_ZNSt8__detail19_Node_iterator_baseISt4pairIKP9ActorNodeS3_ELb0EEC2EPNS_10_Hash_nodeIS5_Lb0EEE W 000000000000002c
_ZNSt8__detail21_Hash_node_value_baseISt4pairIKP9ActorNodeiEE4_M_vEv W 0000000000000044
_ZNSt8__detail21_Hash_node_value_baseISt4pairIKP9ActorNodeiEE9_M_valptrEv W 0000000000000048
_ZNSt8__detail21_Hash_node_value_baseISt4pairIKP9ActorNodeS3_EE4_M_vEv W 0000000000000044
_ZNSt8__detail21_Hash_node_value_baseISt4pairIKP9ActorNodeS3_EE9_M_valptrEv W 0000000000000048
_ZNSt8__detail21_Hashtable_ebo_helperILi0ENS_10_Select1stELb1EE7_S_cgetERKS2_ W 0000000000000020
_ZNSt8__detail21_Hashtable_ebo_helperILi0ESt8equal_toIP9ActorNodeELb1EE7_S_cgetERKS5_ W 0000000000000020
_ZNSt8__detail21_Hashtable_ebo_helperILi1ESt4hashIP9ActorNodeELb1EE7_S_cgetERKS5_ W 0000000000000020
_ZNSt8__detail21_Hashtable_ebo_helperILi2ENS_18_Mod_range_hashingELb1EE7_S_cgetERKS2_ W 0000000000000020
_ZNSt8__detailneISt4pairIKP9ActorNodeS3_ELb0EEEbRKNS_19_Node_iterator_baseIT_XT0_EEESA_ W 0000000000000036
_ZnwmPv W 0000000000000024
_ZSt10_ConstructI4EdgeJS0_EEvPT_DpOT0_ W 00000000000000a9
_ZSt10__pop_heapIN9__gnu_cxx17__normal_iteratorIP4EdgeSt6vectorIS2_SaIS2_EEEENS0_5__ops15_Iter_comp_iterI8EdgeCompEEEvT_SC_SC_RT0_ W 00000000000001b5
_ZSt11__addressofI4EdgeEPT_RS1_ W 0000000000000020
_ZSt11__push_heapIN9__gnu_cxx17__normal_iteratorIP4EdgeSt6vectorIS2_SaIS2_EEEElS2_NS0_5__ops14_Iter_comp_valI8EdgeCompEEEvT_T0_SD_T1_RT2_ W 000000000000026a
_ZSt12__miter_baseIPP9ActorNodeEDTcl12__miter_basecldtfp_4baseEEESt13move_iteratorIT_E W 0000000000000061
_ZSt12__miter_baseIPP9ActorNodeET_S3_ W 0000000000000020
_ZSt12__niter_baseIPP9ActorNodeET_S3_ W 0000000000000020
_ZSt13__adjust_heapIN9__gnu_cxx17__normal_iteratorIP4EdgeSt6vectorIS2_SaIS2_EEEElS2_NS0_5__ops15_Iter_comp_iterI8EdgeCompEEEvT_T0_SD_T1_T2_ W 00000000000003e0
_ZSt13__copy_move_aILb1EPP9ActorNodeS2_ET1_T0_S4_S3_ W 000000000000005b
_ZSt14__copy_move_a2ILb1EPP9ActorNodeS2_ET1_T0_S4_S3_ W 00000000000000bb
_ZSt18uninitialized_copyISt13move_iteratorIP4EdgeES2_ET0_T_S5_S4_ W 000000000000005b
_ZSt18uninitialized_copyISt13move_iteratorIPP9ActorNodeES3_ET0_T_S6_S5_ W 000000000000005b
_ZSt22__uninitialized_copy_aISt13move_iteratorIP4EdgeES2_S1_ET0_T_S5_S4_RSaIT1_E W 000000000000005b
_ZSt22__uninitialized_copy_aISt13move_iteratorIPP9ActorNodeES3_S2_ET0_T_S6_S5_RSaIT1_E W 000000000000005b
_ZSt32__make_move_if_noexcept_iteratorI4EdgeSt13move_iteratorIPS0_EET0_PT_ W 0000000000000049
_ZSt32__make_move_if_noexcept_iteratorIP9ActorNodeSt13move_iteratorIPS1_EET0_PT_ W 0000000000000049
_ZSt34__uninitialized_move_if_noexcept_aIP4EdgeS1_SaIS0_EET0_T_S4_S3_RT1_ W 00000000000000a2
_ZSt34__uninitialized_move_if_noexcept_aIPP9ActorNodeS2_SaIS1_EET0_T_S5_S4_RT1_ W 00000000000000a2
_ZSt3getILm0EKP9ActorNodeiERKNSt13tuple_elementIXT_ESt4pairIT0_T1_EE4typeERKS7_ W 0000000000000044
_ZSt3getILm0EKP9ActorNodeiERNSt13tuple_elementIXT_ESt4pairIT0_T1_EE4typeERS7_ W 0000000000000044
_ZSt3getILm0EKP9ActorNodeS1_ERKNSt13tuple_elementIXT_ESt4pairIT0_T1_EE4typeERKS7_ W 0000000000000044
_ZSt3getILm0EKP9ActorNodeS1_ERNSt13tuple_elementIXT_ESt4pairIT0_T1_EE4typeERS7_ W 0000000000000044
_ZSt3maxImERKT_S2_S2_ W 000000000000004f
_ZSt4copyISt13move_iteratorIPP9ActorNodeES3_ET0_T_S6_S5_ W 000000000000009a
_ZSt4moveIR4EdgeEONSt16remove_referenceIT_E4typeEOS3_ W 0000000000000020
_ZSt4moveIR8EdgeCompEONSt16remove_referenceIT_E4typeEOS3_ W 0000000000000020
_ZSt4moveIRN9__gnu_cxx5__ops15_Iter_comp_iterI8EdgeCompEEEONSt16remove_referenceIT_E4typeEOS7_ W 0000000000000020
_ZSt7forwardI4EdgeEOT_RNSt16remove_referenceIS1_E4typeE W 0000000000000020
_ZSt7forwardIRK4EdgeEOT_RNSt16remove_referenceIS3_E4typeE W 0000000000000020
_ZSt7forwardIRKP9ActorNodeEOT_RNSt16remove_referenceIS4_E4typeE W 0000000000000020
_ZSt7forwardIRKSt4pairIKP9ActorNodeiEEOT_RNSt16remove_referenceIS7_E4typeE W 0000000000000020
_ZSt7forwardIRKSt4pairIKP9ActorNodeS2_EEOT_RNSt16remove_referenceIS7_E4typeE W 0000000000000020
_ZSt7forwardIRSt4pairIKP9ActorNodeiEEOT_RNSt16remove_referenceIS6_E4typeE W 0000000000000020
_ZSt7forwardIRSt4pairIKP9ActorNodeS2_EEOT_RNSt16remove_referenceIS6_E4typeE W 0000000000000020
_ZSt8_DestroyIP4EdgeEvT_S2_ W 000000000000004a
_ZSt8_DestroyIP4EdgeS0_EvT_S2_RSaIT0_E W 000000000000004e
_ZSt8_DestroyIPP9ActorNodeEvT_S3_ W 000000000000004a
_ZSt8_DestroyIPP9ActorNodeS1_EvT_S3_RSaIT0_E W 000000000000004e
_ZSt8pop_heapIN9__gnu_cxx17__normal_iteratorIP4EdgeSt6vectorIS2_SaIS2_EEEE8EdgeCompEvT_S9_T0_ W 00000000000000d4
_ZSteqIP4EdgeEbRKSt13move_iteratorIT_ES6_ W 0000000000000071
_ZStneIP4EdgeEbRKSt13move_iteratorIT_ES6_ W 0000000000000050
